ccopy_reg
_reconstructor
p0
(cmatplotlib.axes._subplots
_PicklableSubplotClassConstructor
p1
c__builtin__
object
p2
Ntp3
Rp4
(cmatplotlib.axes._axes
Axes
p5
tp6
Rp7
(dp8
S'transLimits'
p9
g0
(cmatplotlib.transforms
BboxTransformFrom
p10
g2
Ntp11
Rp12
(dp13
S'_invalid'
p14
I2
sS'_boxin'
p15
g0
(cmatplotlib.transforms
TransformedBbox
p16
g2
Ntp17
Rp18
(dp19
g14
I2
sS'_bbox'
p20
g0
(cmatplotlib.transforms
Bbox
p21
g2
Ntp22
Rp23
(dp24
g14
I2
sS'_minpos'
p25
cnumpy.core.multiarray
_reconstruct
p26
(cnumpy
ndarray
p27
(I0
tp28
S'b'
p29
tp30
Rp31
(I1
(I2
tp32
cnumpy
dtype
p33
(S'f8'
p34
I0
I1
tp35
Rp36
(I3
S'<'
p37
NNNI-1
I-1
I0
tp38
bI00
S'H\xaf\xbc\x9a\xf2\xd7z>H\xaf\xbc\x9a\xf2\xd7z>'
p39
tp40
bsS'_parents'
p41
(dp42
I140205116361104
g18
ssS'_points_orig'
p43
g26
(g27
(I0
tp44
g29
tp45
Rp46
(I1
(I2
I2
tp47
g36
I00
S'\x00\x00\x00\x00\x00\x00\x00\x00\x00\x00\x00\x00\x00\x00\x00\x00\x00\x00\x00\x00\x00\x00\xf0?\x00\x00\x00\x00\x00\x00\xf0?'
p48
tp49
bsS'_points'
p50
g26
(g27
(I0
tp51
g29
tp52
Rp53
(I1
(I2
I2
tp54
g36
I00
S'\x00\x00\x00\x00\x00\x00\x00\x00\x00\x00\x00\x00\x00\x00\x00\x00\x00\x00\x00\x00\x00\xc0r@\x00\x00\x00\x00\x00\x00i@'
p55
tp56
bsS'_ignore'
p57
I01
sS'_shorthand_name'
p58
V
p59
sbsS'_transform'
p60
g0
(cmatplotlib.transforms
TransformWrapper
p61
g2
Ntp62
Rp63
(dp64
Voutput_dims
p65
I2
sVparents
p66
(dp67
I140205116361104
g18
sI140205116361744
g0
(cmatplotlib.transforms
CompositeGenericTransform
p68
g2
Ntp69
Rp70
(dp71
g14
I2
sS'input_dims'
p72
I2
sS'_a'
p73
g63
sS'output_dims'
p74
I2
sS'_b'
p75
g0
(g68
g2
Ntp76
Rp77
(dp78
g14
I2
sg72
I2
sg73
g12
sg74
I2
sg75
g0
(cmatplotlib.transforms
BboxTransformTo
p79
g2
Ntp80
Rp81
(dp82
g14
I1
sS'_mtx'
p83
NsS'_inverted'
p84
NsS'_boxout'
p85
g0
(g16
g2
Ntp86
Rp87
(dp88
g14
I1
sg20
g0
(g21
g2
Ntp89
Rp90
(dp91
g14
I0
sg25
g26
(g27
(I0
tp92
g29
tp93
Rp94
(I1
(I2
tp95
g36
I00
S'H\xaf\xbc\x9a\xf2\xd7z>H\xaf\xbc\x9a\xf2\xd7z>'
p96
tp97
bsg41
(dp98
I140205116360592
g87
ssg43
g26
(g27
(I0
tp99
g29
tp100
Rp101
(I1
(I2
I2
tp102
g36
I00
S'\x00\x00\x00\x00\x00\x00\xc0?\x98\x99\x99\x99\x99\x99\xb9?\xcd\xcc\xcc\xcc\xcc\xcc\xec?\xcd\xcc\xcc\xcc\xcc\xcc\xec?'
p103
tp104
bsg50
g26
(g27
(I0
tp105
g29
tp106
Rp107
(I1
(I2
I2
tp108
g36
I00
S'\x00\x00\x00\x00\x00\x00\xc0?\x98\x99\x99\x99\x99\x99\xb9?\xcd\xcc\xcc\xcc\xcc\xcc\xec?\xcd\xcc\xcc\xcc\xcc\xcc\xec?'
p109
tp110
bsg57
I01
sg58
g59
sbsg60
g0
(g79
g2
Ntp111
Rp112
(dp113
g14
I1
sg83
Nsg84
Nsg85
g0
(g16
g2
Ntp114
Rp115
(dp116
g14
I0
sg20
g0
(g21
g2
Ntp117
Rp118
(dp119
g14
I0
sg25
g26
(g27
(I0
tp120
g29
tp121
Rp122
(I1
(I2
tp123
g36
I00
S'H\xaf\xbc\x9a\xf2\xd7z>H\xaf\xbc\x9a\xf2\xd7z>'
p124
tp125
bsg41
(dp126
I140205119239760
g115
ssg43
g26
(g27
(I0
tp127
g29
tp128
Rp129
(I1
(I2
I2
tp130
g36
I00
S'\x00\x00\x00\x00\x00\x00\x00\x00\x00\x00\x00\x00\x00\x00\x00\x00\x00\x00\x00\x00\x00\x00 @\x00\x00\x00\x00\x00\x00\x18@'
p131
tp132
bsg50
g26
(g27
(I0
tp133
g29
tp134
Rp135
(I1
(I2
I2
tp136
g36
I00
S'\x00\x00\x00\x00\x00\x00\x00\x00\x00\x00\x00\x00\x00\x00\x00\x00\x00\x00\x00\x00\x00\x00 @\x00\x00\x00\x00\x00\x00\x18@'
p137
tp138
bsg57
I01
sg58
g59
sbsg60
g0
(cmatplotlib.transforms
Affine2D
p139
g2
Ntp140
Rp141
(dp142
g14
I0
sg84
Nsg83
g26
(g27
(I0
tp143
g29
tp144
Rp145
(I1
(I3
I3
tp146
g36
I00
S'\x00\x00\x00\x00\x00\x00T@\x00\x00\x00\x00\x00\x00\x00\x00\x00\x00\x00\x00\x00\x00\x00\x00\x00\x00\x00\x00\x00\x00\x00\x00\x00\x00\x00\x00\x00\x00T@\x00\x00\x00\x00\x00\x00\x00\x00\x00\x00\x00\x00\x00\x00\x00\x00\x00\x00\x00\x00\x00\x00\x00\x00\x00\x00\x00\x00\x00\x00\xf0?'
p147
tp148
bsg58
g59
sg41
(dp149
I140205099918480
g0
(cmatplotlib.transforms
ScaledTranslation
p150
g2
Ntp151
Rp152
(dp153
g14
I1
sg83
NsS'_scale_trans'
p154
g141
sg84
NsS'_t'
p155
(F0.0
F0.06944444444444445
tp156
sg58
g59
sg41
(dp157
I140205099918928
g0
(g68
g2
Ntp158
Rp159
(dp160
g14
I1
sg72
I2
sg73
g81
sg74
I2
sg75
g152
sg41
(dp161
sg58
g59
sbsI140205100353808
g0
(g68
g2
Ntp162
Rp163
(dp164
g14
I1
sg72
I2
sg73
g81
sg74
I2
sg75
g152
sg41
(dp165
sg58
g59
sbsI140205100353936
g0
(g68
g2
Ntp166
Rp167
(dp168
g14
I1
sg72
I2
sg73
g81
sg74
I2
sg75
g152
sg41
(dp169
sg58
g59
sbssbsI140205100157264
g0
(g150
g2
Ntp170
Rp171
(dp172
g14
I1
sg83
Nsg154
g141
sg84
Nsg155
(F0.05555555555555555
I0
tp173
sg58
g59
sg41
(dp174
I140205116431440
g0
(g68
g2
Ntp175
Rp176
(dp177
g14
I2
sg72
I2
sg73
g0
(cmatplotlib.transforms
BlendedGenericTransform
p178
g2
Ntp179
Rp180
(dp181
g14
I2
sS'_y'
p182
g70
sS'_x'
p183
g81
sS'_affine'
p184
Nsg41
(dp185
I140205116431440
g176
sI140205100208016
g0
(g68
g2
Ntp186
Rp187
(dp188
g14
I2
sg72
I2
sg73
g180
sg74
I2
sg75
g0
(g150
g2
Ntp189
Rp190
(dp191
g14
I1
sg83
Nsg154
g141
sg84
Nsg155
(F-0.05555555555555555
I0
tp192
sg58
g59
sg41
(dp193
I140205100208016
g187
ssbsg41
(dp194
sg58
g59
sbsI140205099882512
g0
(g68
g2
Ntp195
Rp196
(dp197
g14
I2
sg72
I2
sg73
g180
sg74
I2
sg75
g0
(g150
g2
Ntp198
Rp199
(dp200
g14
I1
sg83
Nsg154
g141
sg84
Nsg155
(F-0.05555555555555555
I0
tp201
sg58
g59
sg41
(dp202
I140205099882512
g196
ssbsg41
(dp203
sg58
g59
sbsI140205099917456
g0
(g68
g2
Ntp204
Rp205
(dp206
g14
I2
sg72
I2
sg73
g180
sg74
I2
sg75
g0
(g150
g2
Ntp207
Rp208
(dp209
g14
I1
sg83
Nsg154
g141
sg84
Nsg155
(F0.05555555555555555
I0
tp210
sg58
g59
sg41
(dp211
I140205099917456
g205
ssbsg41
(dp212
sg58
g59
sbsI140205100156112
g0
(g68
g2
Ntp213
Rp214
(dp215
g14
I2
sg72
I2
sg73
g180
sg74
I2
sg75
g0
(g150
g2
Ntp216
Rp217
(dp218
g14
I1
sg83
Nsg154
g141
sg84
Nsg155
(F-0.05555555555555555
I0
tp219
sg58
g59
sg41
(dp220
I140205100156112
g214
ssbsg41
(dp221
sg58
g59
sbsI140205099882768
g0
(g68
g2
Ntp222
Rp223
(dp224
g14
I2
sg72
I2
sg73
g180
sg74
I2
sg75
g0
(g150
g2
Ntp225
Rp226
(dp227
g14
I1
sg83
Nsg154
g141
sg84
Nsg155
(F0.05555555555555555
I0
tp228
sg58
g59
sg41
(dp229
I140205099882768
g223
ssbsg41
(dp230
sg58
g59
sbsI140205099884368
g0
(g68
g2
Ntp231
Rp232
(dp233
g14
I2
sg72
I2
sg73
g180
sg74
I2
sg75
g0
(g150
g2
Ntp234
Rp235
(dp236
g14
I1
sg83
Nsg154
g141
sg84
Nsg155
(F-0.05555555555555555
I0
tp237
sg58
g59
sg41
(dp238
I140205099884368
g232
ssbsg41
(dp239
sg58
g59
sbsI140205100207824
g0
(g68
g2
Ntp240
Rp241
(dp242
g14
I2
sg72
I2
sg73
g180
sg74
I2
sg75
g0
(g150
g2
Ntp243
Rp244
(dp245
g14
I1
sg83
Nsg154
g141
sg84
Nsg155
(F0.05555555555555555
I0
tp246
sg58
g59
sg41
(dp247
I140205100207824
g241
ssbsg41
(dp248
sg58
g59
sbssg58
g59
sbsg74
I2
sg75
g171
sg41
(dp249
sg58
g59
sbssbsI140205099882448
g199
sI140205099917392
g208
sI140205099882704
g226
sI140205100351824
g0
(g150
g2
Ntp250
Rp251
(dp252
g14
I1
sg83
Nsg154
g141
sg84
Nsg155
(I0
F0.05555555555555555
tp253
sg58
g59
sg41
(dp254
I140205100351888
g0
(g68
g2
Ntp255
Rp256
(dp257
g14
I2
sg72
I2
sg73
g0
(g178
g2
Ntp258
Rp259
(dp260
g14
I2
sg182
g81
sg183
g70
sg184
Nsg41
(dp261
I140205100317648
g0
(g68
g2
Ntp262
Rp263
(dp264
g14
I2
sg72
I2
sg73
g259
sg74
I2
sg75
g0
(g150
g2
Ntp265
Rp266
(dp267
g14
I1
sg83
Nsg154
g141
sg84
Nsg155
(I0
F0.05555555555555555
tp268
sg58
g59
sg41
(dp269
I140205100317648
g263
ssbsg41
(dp270
sg58
g59
sbsI140205100158800
g0
(g68
g2
Ntp271
Rp272
(dp273
g14
I2
sg72
I2
sg73
g259
sg74
I2
sg75
g0
(g150
g2
Ntp274
Rp275
(dp276
g14
I1
sg83
Nsg154
g141
sg84
Nsg155
(I0
F-0.05555555555555555
tp277
sg58
g59
sg41
(dp278
I140205100158800
g272
ssbsg41
(dp279
sg58
g59
sbsI140205100351888
g256
sI140205100355024
g0
(g68
g2
Ntp280
Rp281
(dp282
g14
I2
sg72
I2
sg73
g259
sg74
I2
sg75
g0
(g150
g2
Ntp283
Rp284
(dp285
g14
I1
sg83
Nsg154
g141
sg84
Nsg155
(I0
F-0.05555555555555555
tp286
sg58
g59
sg41
(dp287
I140205100355024
g281
ssbsg41
(dp288
sg58
g59
sbsI140205099881808
g0
(g68
g2
Ntp289
Rp290
(dp291
g14
I2
sg72
I2
sg73
g259
sg74
I2
sg75
g0
(g150
g2
Ntp292
Rp293
(dp294
g14
I1
sg83
Nsg154
g141
sg84
Nsg155
(I0
F-0.05555555555555555
tp295
sg58
g59
sg41
(dp296
I140205099881808
g290
ssbsg41
(dp297
sg58
g59
sbsI140205099882064
g0
(g68
g2
Ntp298
Rp299
(dp300
g14
I2
sg72
I2
sg73
g259
sg74
I2
sg75
g0
(g150
g2
Ntp301
Rp302
(dp303
g14
I1
sg83
Nsg154
g141
sg84
Nsg155
(I0
F0.05555555555555555
tp304
sg58
g59
sg41
(dp305
I140205099882064
g299
ssbsg41
(dp306
sg58
g59
sbsI140205100317328
g0
(g68
g2
Ntp307
Rp308
(dp309
g14
I2
sg72
I2
sg73
g259
sg74
I2
sg75
g0
(g150
g2
Ntp310
Rp311
(dp312
g14
I1
sg83
Nsg154
g141
sg84
Nsg155
(I0
F-0.05555555555555555
tp313
sg58
g59
sg41
(dp314
I140205100317328
g308
ssbsg41
(dp315
sg58
g59
sbsI140205100355280
g0
(g68
g2
Ntp316
Rp317
(dp318
g14
I2
sg72
I2
sg73
g259
sg74
I2
sg75
g0
(g150
g2
Ntp319
Rp320
(dp321
g14
I1
sg83
Nsg154
g141
sg84
Nsg155
(I0
F0.05555555555555555
tp322
sg58
g59
sg41
(dp323
I140205100355280
g317
ssbsg41
(dp324
sg58
g59
sbssg58
g59
sbsg74
I2
sg75
g251
sg41
(dp325
sg58
g59
sbssbsI140205099881744
g293
sI140205100206800
g190
sI140205100157776
g275
sI140205100354960
g284
sI140205100317136
g266
sI140205100156176
g217
sI140205099882000
g302
sI140205119239760
g115
sI140205100355216
g320
sI140205100208080
g244
sI140205099884304
g235
sI140205100317008
g311
ssbsg50
g26
(g27
(I0
tp326
g29
tp327
Rp328
(I1
(I2
I2
tp329
g36
I00
S'\x00\x00\x00\x00\x00\x00\x00\x00\x00\x00\x00\x00\x00\x00\x00\x00\x00\x00\x00\x00\x00\x00\x84@\x00\x00\x00\x00\x00\x00~@'
p330
tp331
bsg41
(dp332
I140205119170320
g112
ssg58
g59
sbsg41
(dp333
I140205116360592
g87
ssg58
g59
sbsg50
Nsg41
(dp334
I140205116361232
g81
ssg58
g59
sbsg41
(dp335
I140205100037072
g0
(g68
g2
Ntp336
Rp337
(dp338
g14
I1
sg72
I2
sg73
g0
(g68
g2
Ntp339
Rp340
(dp341
g14
I1
sg72
I2
sg73
g0
(g79
g2
Ntp342
Rp343
(dp344
g14
I1
sg83
Nsg84
Nsg85
g0
(g21
g2
Ntp345
Rp346
(dp347
g14
I1
sg25
g26
(g27
(I0
tp348
g29
tp349
Rp350
(I1
(I2
tp351
g36
I00
S'H\xaf\xbc\x9a\xf2\xd7z>H\xaf\xbc\x9a\xf2\xd7z>'
p352
tp353
bsg41
(dp354
I140205100036880
g343
ssg43
g26
(g27
(I0
tp355
g29
tp356
Rp357
(I1
(I2
I2
tp358
g36
I00
S'\x00\x00\x00\x00\x00\x00\x00\x00\x00\x00\x00\x00\x00\x00\x00\x00\x00\x00\x00\x00\x00\x00\xf0?\x00\x00\x00\x00\x00\x00\xf0?'
p359
tp360
bsg50
g26
(g27
(I0
tp361
g29
tp362
Rp363
(I1
(I2
I2
tp364
g36
I00
S'\x00\x00\x00\x00\x00\x00\x00\x00\x00\x00\x00\x00\x00\x00\x00\x00\x00\x00\x00\x00\x00\x00\xf0?\x00\x00\x00\x00\x00\x00\xf0?'
p365
tp366
bsg57
I01
sg58
g59
sbsg41
(dp367
I140205100037008
g340
ssg58
g59
sbsg74
I2
sg75
g0
(g139
g2
Ntp368
Rp369
(dp370
g14
I2
sg84
Nsg83
g26
(g27
(I0
tp371
g29
tp372
Rp373
(I1
(I3
I3
tp374
g36
I00
S'\x00\x00\x00\x00\x00\x00\xf0?\x00\x00\x00\x00\x00\x00\x00\x00\x00\x00\x00\x00\x00\x00\x00\x00\x00\x00\x00\x00\x00\x00\x00\x00\x00\x00\x00\x00\x00\x00\xf0?\x00\x00\x00\x00\x00\x00\x00\x00\x00\x00\x00\x00\x00\x00\x00\x00\x00\x00\x00\x00\x00\x00\x00\x00\x00\x00\x00\x00\x00\x00\xf0?'
p375
tp376
bsg58
g59
sg41
(dp377
I140205100037008
g340
ssbsg41
(dp378
I140205100037072
g337
ssg58
g59
sbsg74
I2
sg75
g81
sg41
(dp379
I140205100037200
g0
(g16
g2
Ntp380
Rp381
(dp382
g14
I1
sg20
g0
(g21
g2
Ntp383
Rp384
(dp385
g14
I1
sg25
g26
(g27
(I0
tp386
g29
tp387
Rp388
(I1
(I2
tp389
g36
I00
S'H\xaf\xbc\x9a\xf2\xd7z>H\xaf\xbc\x9a\xf2\xd7z>'
p390
tp391
bsg41
(dp392
I140205100037200
g381
ssg43
g26
(g27
(I0
tp393
g29
tp394
Rp395
(I1
(I2
I2
tp396
g36
I00
S'\x00\x00\x00\x00\x00\x00\x00\x00\x00\x00\x00\x00\x00\x00\x00\x00\x00\x00\x00\x00\x00\x00\xf0?\x00\x00\x00\x00\x00\x00\xf0?'
p397
tp398
bsg50
g26
(g27
(I0
tp399
g29
tp400
Rp401
(I1
(I2
I2
tp402
g36
I00
S'\x00\x00\x00\x00\x00\x00\x00\x00\x00\x00\x00\x00\x00\x00\x00\x00\x00\x00\x00\x00\x00\x00\xf0?\x00\x00\x00\x00\x00\x00\xf0?'
p403
tp404
bsg57
I01
sg58
g59
sbsg60
g337
sg50
Nsg41
(dp405
sg58
g59
sbssg58
g59
sbsI140205100205328
g0
(cmatplotlib.transforms
BlendedAffine2D
p406
g2
Ntp407
Rp408
(dp409
g14
I1
sg83
Nsg182
g81
sg183
g0
(cmatplotlib.transforms
IdentityTransform
p410
g2
Ntp411
Rp412
(dp413
g14
I1
sg84
Nsg58
g59
sg41
(dp414
I140205100205328
g408
ssbsg84
Nsg58
g59
sg41
(dp415
sbsI140205099980176
g0
(g68
g2
Ntp416
Rp417
(dp418
g14
I1
sg72
I2
sg73
g0
(g68
g2
Ntp419
Rp420
(dp421
g14
I1
sg72
I2
sg73
g0
(g79
g2
Ntp422
Rp423
(dp424
g14
I1
sg83
Nsg84
Nsg85
g0
(g21
g2
Ntp425
Rp426
(dp427
g14
I1
sg25
g26
(g27
(I0
tp428
g29
tp429
Rp430
(I1
(I2
tp431
g36
I00
S'H\xaf\xbc\x9a\xf2\xd7z>H\xaf\xbc\x9a\xf2\xd7z>'
p432
tp433
bsg41
(dp434
I140205099979984
g423
ssg43
g26
(g27
(I0
tp435
g29
tp436
Rp437
(I1
(I2
I2
tp438
g36
I00
S'\x00\x00\x00\x00\x00\x00\x00\x00\x00\x00\x00\x00\x00\x00\x00\x00\x00\x00\x00\x00\x00\x00\xf0?\x00\x00\x00\x00\x00\x00\xf0?'
p439
tp440
bsg50
g26
(g27
(I0
tp441
g29
tp442
Rp443
(I1
(I2
I2
tp444
g36
I00
S'\x00\x00\x00\x00\x00\x00\x00\x00\x00\x00\x00\x00\x00\x00\x00\x00\x00\x00\x00\x00\x00\x00\xf0?\x00\x00\x00\x00\x00\x00\xf0?'
p445
tp446
bsg57
I01
sg58
g59
sbsg41
(dp447
I140205099980112
g420
ssg58
g59
sbsg74
I2
sg75
g0
(g139
g2
Ntp448
Rp449
(dp450
g14
I2
sg84
Nsg83
g26
(g27
(I0
tp451
g29
tp452
Rp453
(I1
(I3
I3
tp454
g36
I00
S'\x00\x00\x00\x00\x00\x00\xf0?\x00\x00\x00\x00\x00\x00\x00\x00\x00\x00\x00\x00\x00\x00\x00\x00\x00\x00\x00\x00\x00\x00\x00\x00\x00\x00\x00\x00\x00\x00\xf0?\x00\x00\x00\x00\x00\x00\x00\x00\x00\x00\x00\x00\x00\x00\x00\x00\x00\x00\x00\x00\x00\x00\x00\x00\x00\x00\x00\x00\x00\x00\xf0?'
p455
tp456
bsg58
g59
sg41
(dp457
I140205099980112
g420
ssbsg41
(dp458
I140205099980176
g417
ssg58
g59
sbsg74
I2
sg75
g81
sg41
(dp459
I140205099980304
g0
(g16
g2
Ntp460
Rp461
(dp462
g14
I1
sg20
g0
(g21
g2
Ntp463
Rp464
(dp465
g14
I1
sg25
g26
(g27
(I0
tp466
g29
tp467
Rp468
(I1
(I2
tp469
g36
I00
S'H\xaf\xbc\x9a\xf2\xd7z>H\xaf\xbc\x9a\xf2\xd7z>'
p470
tp471
bsg41
(dp472
I140205099980304
g461
ssg43
g26
(g27
(I0
tp473
g29
tp474
Rp475
(I1
(I2
I2
tp476
g36
I00
S'\x00\x00\x00\x00\x00\x00\x00\x00\x00\x00\x00\x00\x00\x00\x00\x00\x00\x00\x00\x00\x00\x00\xf0?\x00\x00\x00\x00\x00\x00\xf0?'
p477
tp478
bsg50
g26
(g27
(I0
tp479
g29
tp480
Rp481
(I1
(I2
I2
tp482
g36
I00
S'\x00\x00\x00\x00\x00\x00\x00\x00\x00\x00\x00\x00\x00\x00\x00\x00\x00\x00\x00\x00\x00\x00\xf0?\x00\x00\x00\x00\x00\x00\xf0?'
p483
tp484
bsg57
I01
sg58
g59
sbsg60
g417
sg50
Nsg41
(dp485
sg58
g59
sbssg58
g59
sbsI140205116429840
g0
(g406
g2
Ntp486
Rp487
(dp488
g14
I1
sg83
Nsg182
g0
(g410
g2
Ntp489
Rp490
(dp491
g14
I1
sg84
Nsg58
g59
sg41
(dp492
I140205116429840
g487
ssbsg183
g81
sg84
Nsg58
g59
sg41
(dp493
sbsI140205099918928
g159
sI140205100205712
g0
(g406
g2
Ntp494
Rp495
(dp496
g14
I1
sg83
Nsg182
g0
(g410
g2
Ntp497
Rp498
(dp499
g14
I1
sg84
Nsg58
g59
sg41
(dp500
I140205100205712
g495
ssbsg183
g81
sg84
Nsg58
g59
sg41
(dp501
sbsI140205099636432
g0
(g68
g2
Ntp502
Rp503
(dp504
g14
I1
sg72
I2
sg73
g0
(g68
g2
Ntp505
Rp506
(dp507
g14
I1
sg72
I2
sg73
g0
(g79
g2
Ntp508
Rp509
(dp510
g14
I1
sg83
Nsg84
Nsg85
g0
(g21
g2
Ntp511
Rp512
(dp513
g14
I1
sg25
g26
(g27
(I0
tp514
g29
tp515
Rp516
(I1
(I2
tp517
g36
I00
S'H\xaf\xbc\x9a\xf2\xd7z>H\xaf\xbc\x9a\xf2\xd7z>'
p518
tp519
bsg41
(dp520
I140205099636240
g509
ssg43
g26
(g27
(I0
tp521
g29
tp522
Rp523
(I1
(I2
I2
tp524
g36
I00
S'\x00\x00\x00\x00\x00\x00\x00\x00\x00\x00\x00\x00\x00\x00\x00\x00\x00\x00\x00\x00\x00\x00\xf0?\x00\x00\x00\x00\x00\x00\xf0?'
p525
tp526
bsg50
g26
(g27
(I0
tp527
g29
tp528
Rp529
(I1
(I2
I2
tp530
g36
I00
S'\x00\x00\x00\x00\x00\x00\x00\x00\x00\x00\x00\x00\x00\x00\x00\x00\x00\x00\x00\x00\x00\x00\xf0?\x00\x00\x00\x00\x00\x00\xf0?'
p531
tp532
bsg57
I01
sg58
g59
sbsg41
(dp533
I140205099636368
g506
ssg58
g59
sbsg74
I2
sg75
g0
(g139
g2
Ntp534
Rp535
(dp536
g14
I2
sg84
Nsg83
g26
(g27
(I0
tp537
g29
tp538
Rp539
(I1
(I3
I3
tp540
g36
I00
S'\x00\x00\x00\x00\x00\x00\xf0?\x00\x00\x00\x00\x00\x00\x00\x00\x00\x00\x00\x00\x00\x00\x00\x00\x00\x00\x00\x00\x00\x00\x00\x00\x00\x00\x00\x00\x00\x00\xf0?\x00\x00\x00\x00\x00\x00\x00\x00\x00\x00\x00\x00\x00\x00\x00\x00\x00\x00\x00\x00\x00\x00\x00\x00\x00\x00\x00\x00\x00\x00\xf0?'
p541
tp542
bsg58
g59
sg41
(dp543
I140205099636368
g506
ssbsg41
(dp544
I140205099636432
g503
ssg58
g59
sbsg74
I2
sg75
g81
sg41
(dp545
I140205099636560
g0
(g16
g2
Ntp546
Rp547
(dp548
g14
I1
sg20
g0
(g21
g2
Ntp549
Rp550
(dp551
g14
I1
sg25
g26
(g27
(I0
tp552
g29
tp553
Rp554
(I1
(I2
tp555
g36
I00
S'H\xaf\xbc\x9a\xf2\xd7z>H\xaf\xbc\x9a\xf2\xd7z>'
p556
tp557
bsg41
(dp558
I140205099636560
g547
ssg43
g26
(g27
(I0
tp559
g29
tp560
Rp561
(I1
(I2
I2
tp562
g36
I00
S'\x00\x00\x00\x00\x00\x00\x00\x00\x00\x00\x00\x00\x00\x00\x00\x00\x00\x00\x00\x00\x00\x00\xf0?\x00\x00\x00\x00\x00\x00\xf0?'
p563
tp564
bsg50
g26
(g27
(I0
tp565
g29
tp566
Rp567
(I1
(I2
I2
tp568
g36
I00
S'\x00\x00\x00\x00\x00\x00\x00\x00\x00\x00\x00\x00\x00\x00\x00\x00\x00\x00\x00\x00\x00\x00\xf0?\x00\x00\x00\x00\x00\x00\xf0?'
p569
tp570
bsg57
I01
sg58
g59
sbsg60
g503
sg50
Nsg41
(dp571
sg58
g59
sbssg58
g59
sbsI140205099919184
g0
(g68
g2
Ntp572
Rp573
(dp574
g14
I1
sg72
I2
sg73
g0
(g68
g2
Ntp575
Rp576
(dp577
g14
I1
sg72
I2
sg73
g0
(g79
g2
Ntp578
Rp579
(dp580
g14
I1
sg83
Nsg84
Nsg85
g0
(g21
g2
Ntp581
Rp582
(dp583
g14
I1
sg25
g26
(g27
(I0
tp584
g29
tp585
Rp586
(I1
(I2
tp587
g36
I00
S'H\xaf\xbc\x9a\xf2\xd7z>H\xaf\xbc\x9a\xf2\xd7z>'
p588
tp589
bsg41
(dp590
I140205099918992
g579
ssg43
g26
(g27
(I0
tp591
g29
tp592
Rp593
(I1
(I2
I2
tp594
g36
I00
S'\x00\x00\x00\x00\x00\x00\x00\x00\x00\x00\x00\x00\x00\x00\x00\x00\x00\x00\x00\x00\x00\x00\xf0?\x00\x00\x00\x00\x00\x00\xf0?'
p595
tp596
bsg50
g26
(g27
(I0
tp597
g29
tp598
Rp599
(I1
(I2
I2
tp600
g36
I00
S'\x00\x00\x00\x00\x00\x00\x00\x00\x00\x00\x00\x00\x00\x00\x00\x00\x00\x00\x00\x00\x00\x00\xf0?\x00\x00\x00\x00\x00\x00\xf0?'
p601
tp602
bsg57
I01
sg58
g59
sbsg41
(dp603
I140205099919120
g576
ssg58
g59
sbsg74
I2
sg75
g0
(g139
g2
Ntp604
Rp605
(dp606
g14
I2
sg84
Nsg83
g26
(g27
(I0
tp607
g29
tp608
Rp609
(I1
(I3
I3
tp610
g36
I00
S'\x00\x00\x00\x00\x00\x00\xf0?\x00\x00\x00\x00\x00\x00\x00\x00\x00\x00\x00\x00\x00\x00\x00\x00\x00\x00\x00\x00\x00\x00\x00\x00\x00\x00\x00\x00\x00\x00\xf0?\x00\x00\x00\x00\x00\x00\x00\x00\x00\x00\x00\x00\x00\x00\x00\x00\x00\x00\x00\x00\x00\x00\x00\x00\x00\x00\x00\x00\x00\x00\xf0?'
p611
tp612
bsg58
g59
sg41
(dp613
I140205099919120
g576
ssbsg41
(dp614
I140205099919184
g573
ssg58
g59
sbsg74
I2
sg75
g81
sg41
(dp615
I140205099919312
g0
(g16
g2
Ntp616
Rp617
(dp618
g14
I1
sg20
g0
(g21
g2
Ntp619
Rp620
(dp621
g14
I1
sg25
g26
(g27
(I0
tp622
g29
tp623
Rp624
(I1
(I2
tp625
g36
I00
S'H\xaf\xbc\x9a\xf2\xd7z>H\xaf\xbc\x9a\xf2\xd7z>'
p626
tp627
bsg41
(dp628
I140205099919312
g617
ssg43
g26
(g27
(I0
tp629
g29
tp630
Rp631
(I1
(I2
I2
tp632
g36
I00
S'\x00\x00\x00\x00\x00\x00\x00\x00\x00\x00\x00\x00\x00\x00\x00\x00\x00\x00\x00\x00\x00\x00\xf0?\x00\x00\x00\x00\x00\x00\xf0?'
p633
tp634
bsg50
g26
(g27
(I0
tp635
g29
tp636
Rp637
(I1
(I2
I2
tp638
g36
I00
S'\x00\x00\x00\x00\x00\x00\x00\x00\x00\x00\x00\x00\x00\x00\x00\x00\x00\x00\x00\x00\x00\x00\xf0?\x00\x00\x00\x00\x00\x00\xf0?'
p639
tp640
bsg57
I01
sg58
g59
sbsg60
g573
sg50
Nsg41
(dp641
sg58
g59
sbssg58
g59
sbsI140205116430224
g0
(g406
g2
Ntp642
Rp643
(dp644
g14
I1
sg83
Nsg182
g0
(g410
g2
Ntp645
Rp646
(dp647
g14
I1
sg84
Nsg58
g59
sg41
(dp648
I140205116430224
g643
ssbsg183
g81
sg84
Nsg58
g59
sg41
(dp649
sbsI140205100353808
g163
sI140205099981072
g0
(g68
g2
Ntp650
Rp651
(dp652
g14
I1
sg72
I2
sg73
g0
(g68
g2
Ntp653
Rp654
(dp655
g14
I1
sg72
I2
sg73
g0
(g79
g2
Ntp656
Rp657
(dp658
g14
I1
sg83
Nsg84
Nsg85
g0
(g21
g2
Ntp659
Rp660
(dp661
g14
I1
sg25
g26
(g27
(I0
tp662
g29
tp663
Rp664
(I1
(I2
tp665
g36
I00
S'H\xaf\xbc\x9a\xf2\xd7z>H\xaf\xbc\x9a\xf2\xd7z>'
p666
tp667
bsg41
(dp668
I140205099980880
g657
ssg43
g26
(g27
(I0
tp669
g29
tp670
Rp671
(I1
(I2
I2
tp672
g36
I00
S'\x00\x00\x00\x00\x00\x00\x00\x00\x00\x00\x00\x00\x00\x00\x00\x00\x00\x00\x00\x00\x00\x00\xf0?\x00\x00\x00\x00\x00\x00\xf0?'
p673
tp674
bsg50
g26
(g27
(I0
tp675
g29
tp676
Rp677
(I1
(I2
I2
tp678
g36
I00
S'\x00\x00\x00\x00\x00\x00\x00\x00\x00\x00\x00\x00\x00\x00\x00\x00\x00\x00\x00\x00\x00\x00\xf0?\x00\x00\x00\x00\x00\x00\xf0?'
p679
tp680
bsg57
I01
sg58
g59
sbsg41
(dp681
I140205099981008
g654
ssg58
g59
sbsg74
I2
sg75
g0
(g139
g2
Ntp682
Rp683
(dp684
g14
I2
sg84
Nsg83
g26
(g27
(I0
tp685
g29
tp686
Rp687
(I1
(I3
I3
tp688
g36
I00
S'\x00\x00\x00\x00\x00\x00\xf0?\x00\x00\x00\x00\x00\x00\x00\x00\x00\x00\x00\x00\x00\x00\x00\x00\x00\x00\x00\x00\x00\x00\x00\x00\x00\x00\x00\x00\x00\x00\xf0?\x00\x00\x00\x00\x00\x00\x00\x00\x00\x00\x00\x00\x00\x00\x00\x00\x00\x00\x00\x00\x00\x00\x00\x00\x00\x00\x00\x00\x00\x00\xf0?'
p689
tp690
bsg58
g59
sg41
(dp691
I140205099981008
g654
ssbsg41
(dp692
I140205099981072
g651
ssg58
g59
sbsg74
I2
sg75
g81
sg41
(dp693
I140205099981200
g0
(g16
g2
Ntp694
Rp695
(dp696
g14
I1
sg20
g0
(g21
g2
Ntp697
Rp698
(dp699
g14
I1
sg25
g26
(g27
(I0
tp700
g29
tp701
Rp702
(I1
(I2
tp703
g36
I00
S'H\xaf\xbc\x9a\xf2\xd7z>H\xaf\xbc\x9a\xf2\xd7z>'
p704
tp705
bsg41
(dp706
I140205099981200
g695
ssg43
g26
(g27
(I0
tp707
g29
tp708
Rp709
(I1
(I2
I2
tp710
g36
I00
S'\x00\x00\x00\x00\x00\x00\x00\x00\x00\x00\x00\x00\x00\x00\x00\x00\x00\x00\x00\x00\x00\x00\xf0?\x00\x00\x00\x00\x00\x00\xf0?'
p711
tp712
bsg50
g26
(g27
(I0
tp713
g29
tp714
Rp715
(I1
(I2
I2
tp716
g36
I00
S'\x00\x00\x00\x00\x00\x00\x00\x00\x00\x00\x00\x00\x00\x00\x00\x00\x00\x00\x00\x00\x00\x00\xf0?\x00\x00\x00\x00\x00\x00\xf0?'
p717
tp718
bsg57
I01
sg58
g59
sbsg60
g651
sg50
Nsg41
(dp719
sg58
g59
sbssg58
g59
sbsI140205100353936
g167
sI140205100039760
g0
(g68
g2
Ntp720
Rp721
(dp722
g14
I1
sg72
I2
sg73
g0
(g68
g2
Ntp723
Rp724
(dp725
g14
I1
sg72
I2
sg73
g0
(g79
g2
Ntp726
Rp727
(dp728
g14
I1
sg83
Nsg84
Nsg85
g0
(g21
g2
Ntp729
Rp730
(dp731
g14
I1
sg25
g26
(g27
(I0
tp732
g29
tp733
Rp734
(I1
(I2
tp735
g36
I00
S'H\xaf\xbc\x9a\xf2\xd7z>H\xaf\xbc\x9a\xf2\xd7z>'
p736
tp737
bsg41
(dp738
I140205100039568
g727
ssg43
g26
(g27
(I0
tp739
g29
tp740
Rp741
(I1
(I2
I2
tp742
g36
I00
S'\x00\x00\x00\x00\x00\x00\x00\x00\x00\x00\x00\x00\x00\x00\x00\x00\x00\x00\x00\x00\x00\x00\xf0?\x00\x00\x00\x00\x00\x00\xf0?'
p743
tp744
bsg50
g26
(g27
(I0
tp745
g29
tp746
Rp747
(I1
(I2
I2
tp748
g36
I00
S'\x00\x00\x00\x00\x00\x00\x00\x00\x00\x00\x00\x00\x00\x00\x00\x00\x00\x00\x00\x00\x00\x00\xf0?\x00\x00\x00\x00\x00\x00\xf0?'
p749
tp750
bsg57
I01
sg58
g59
sbsg41
(dp751
I140205100039696
g724
ssg58
g59
sbsg74
I2
sg75
g0
(g139
g2
Ntp752
Rp753
(dp754
g14
I2
sg84
Nsg83
g26
(g27
(I0
tp755
g29
tp756
Rp757
(I1
(I3
I3
tp758
g36
I00
S'\x00\x00\x00\x00\x00\x00\xf0?\x00\x00\x00\x00\x00\x00\x00\x00\x00\x00\x00\x00\x00\x00\x00\x00\x00\x00\x00\x00\x00\x00\x00\x00\x00\x00\x00\x00\x00\x00\xf0?\x00\x00\x00\x00\x00\x00\x00\x00\x00\x00\x00\x00\x00\x00\x00\x00\x00\x00\x00\x00\x00\x00\x00\x00\x00\x00\x00\x00\x00\x00\xf0?'
p759
tp760
bsg58
g59
sg41
(dp761
I140205100039696
g724
ssbsg41
(dp762
I140205100039760
g721
ssg58
g59
sbsg74
I2
sg75
g81
sg41
(dp763
I140205100039888
g0
(g16
g2
Ntp764
Rp765
(dp766
g14
I1
sg20
g0
(g21
g2
Ntp767
Rp768
(dp769
g14
I1
sg25
g26
(g27
(I0
tp770
g29
tp771
Rp772
(I1
(I2
tp773
g36
I00
S'H\xaf\xbc\x9a\xf2\xd7z>H\xaf\xbc\x9a\xf2\xd7z>'
p774
tp775
bsg41
(dp776
I140205100039888
g765
ssg43
g26
(g27
(I0
tp777
g29
tp778
Rp779
(I1
(I2
I2
tp780
g36
I00
S'\x00\x00\x00\x00\x00\x00\x00\x00\x00\x00\x00\x00\x00\x00\x00\x00\x00\x00\x00\x00\x00\x00\xf0?\x00\x00\x00\x00\x00\x00\xf0?'
p781
tp782
bsg50
g26
(g27
(I0
tp783
g29
tp784
Rp785
(I1
(I2
I2
tp786
g36
I00
S'\x00\x00\x00\x00\x00\x00\x00\x00\x00\x00\x00\x00\x00\x00\x00\x00\x00\x00\x00\x00\x00\x00\xf0?\x00\x00\x00\x00\x00\x00\xf0?'
p787
tp788
bsg57
I01
sg58
g59
sbsg60
g721
sg50
Nsg41
(dp789
sg58
g59
sbssg58
g59
sbsI140205099637392
g0
(g68
g2
Ntp790
Rp791
(dp792
g14
I1
sg72
I2
sg73
g0
(g68
g2
Ntp793
Rp794
(dp795
g14
I1
sg72
I2
sg73
g0
(g79
g2
Ntp796
Rp797
(dp798
g14
I1
sg83
Nsg84
Nsg85
g0
(g21
g2
Ntp799
Rp800
(dp801
g14
I1
sg25
g26
(g27
(I0
tp802
g29
tp803
Rp804
(I1
(I2
tp805
g36
I00
S'H\xaf\xbc\x9a\xf2\xd7z>H\xaf\xbc\x9a\xf2\xd7z>'
p806
tp807
bsg41
(dp808
I140205099636944
g797
ssg43
g26
(g27
(I0
tp809
g29
tp810
Rp811
(I1
(I2
I2
tp812
g36
I00
S'\x00\x00\x00\x00\x00\x00\x00\x00\x00\x00\x00\x00\x00\x00\x00\x00\x00\x00\x00\x00\x00\x00\xf0?\x00\x00\x00\x00\x00\x00\xf0?'
p813
tp814
bsg50
g26
(g27
(I0
tp815
g29
tp816
Rp817
(I1
(I2
I2
tp818
g36
I00
S'\x00\x00\x00\x00\x00\x00\x00\x00\x00\x00\x00\x00\x00\x00\x00\x00\x00\x00\x00\x00\x00\x00\xf0?\x00\x00\x00\x00\x00\x00\xf0?'
p819
tp820
bsg57
I01
sg58
g59
sbsg41
(dp821
I140205099637328
g794
ssg58
g59
sbsg74
I2
sg75
g0
(g139
g2
Ntp822
Rp823
(dp824
g14
I2
sg84
Nsg83
g26
(g27
(I0
tp825
g29
tp826
Rp827
(I1
(I3
I3
tp828
g36
I00
S'\x00\x00\x00\x00\x00\x00\xf0?\x00\x00\x00\x00\x00\x00\x00\x00\x00\x00\x00\x00\x00\x00\x00\x00\x00\x00\x00\x00\x00\x00\x00\x00\x00\x00\x00\x00\x00\x00\xf0?\x00\x00\x00\x00\x00\x00\x00\x00\x00\x00\x00\x00\x00\x00\x00\x00\x00\x00\x00\x00\x00\x00\x00\x00\x00\x00\x00\x00\x00\x00\xf0?'
p829
tp830
bsg58
g59
sg41
(dp831
I140205099637328
g794
ssbsg41
(dp832
I140205099637392
g791
ssg58
g59
sbsg74
I2
sg75
g81
sg41
(dp833
I140205099637520
g0
(g16
g2
Ntp834
Rp835
(dp836
g14
I1
sg20
g0
(g21
g2
Ntp837
Rp838
(dp839
g14
I1
sg25
g26
(g27
(I0
tp840
g29
tp841
Rp842
(I1
(I2
tp843
g36
I00
S'H\xaf\xbc\x9a\xf2\xd7z>H\xaf\xbc\x9a\xf2\xd7z>'
p844
tp845
bsg41
(dp846
I140205099637520
g835
ssg43
g26
(g27
(I0
tp847
g29
tp848
Rp849
(I1
(I2
I2
tp850
g36
I00
S'\x00\x00\x00\x00\x00\x00\x00\x00\x00\x00\x00\x00\x00\x00\x00\x00\x00\x00\x00\x00\x00\x00\xf0?\x00\x00\x00\x00\x00\x00\xf0?'
p851
tp852
bsg50
g26
(g27
(I0
tp853
g29
tp854
Rp855
(I1
(I2
I2
tp856
g36
I00
S'\x00\x00\x00\x00\x00\x00\x00\x00\x00\x00\x00\x00\x00\x00\x00\x00\x00\x00\x00\x00\x00\x00\xf0?\x00\x00\x00\x00\x00\x00\xf0?'
p857
tp858
bsg57
I01
sg58
g59
sbsg60
g791
sg50
Nsg41
(dp859
sg58
g59
sbssg58
g59
sbsI140205099920080
g0
(g68
g2
Ntp860
Rp861
(dp862
g14
I1
sg72
I2
sg73
g0
(g68
g2
Ntp863
Rp864
(dp865
g14
I1
sg72
I2
sg73
g0
(g79
g2
Ntp866
Rp867
(dp868
g14
I1
sg83
Nsg84
Nsg85
g0
(g21
g2
Ntp869
Rp870
(dp871
g14
I1
sg25
g26
(g27
(I0
tp872
g29
tp873
Rp874
(I1
(I2
tp875
g36
I00
S'H\xaf\xbc\x9a\xf2\xd7z>H\xaf\xbc\x9a\xf2\xd7z>'
p876
tp877
bsg41
(dp878
I140205099919888
g867
ssg43
g26
(g27
(I0
tp879
g29
tp880
Rp881
(I1
(I2
I2
tp882
g36
I00
S'\x00\x00\x00\x00\x00\x00\x00\x00\x00\x00\x00\x00\x00\x00\x00\x00\x00\x00\x00\x00\x00\x00\xf0?\x00\x00\x00\x00\x00\x00\xf0?'
p883
tp884
bsg50
g26
(g27
(I0
tp885
g29
tp886
Rp887
(I1
(I2
I2
tp888
g36
I00
S'\x00\x00\x00\x00\x00\x00\x00\x00\x00\x00\x00\x00\x00\x00\x00\x00\x00\x00\x00\x00\x00\x00\xf0?\x00\x00\x00\x00\x00\x00\xf0?'
p889
tp890
bsg57
I01
sg58
g59
sbsg41
(dp891
I140205099920016
g864
ssg58
g59
sbsg74
I2
sg75
g0
(g139
g2
Ntp892
Rp893
(dp894
g14
I2
sg84
Nsg83
g26
(g27
(I0
tp895
g29
tp896
Rp897
(I1
(I3
I3
tp898
g36
I00
S'\x00\x00\x00\x00\x00\x00\xf0?\x00\x00\x00\x00\x00\x00\x00\x00\x00\x00\x00\x00\x00\x00\x00\x00\x00\x00\x00\x00\x00\x00\x00\x00\x00\x00\x00\x00\x00\x00\xf0?\x00\x00\x00\x00\x00\x00\x00\x00\x00\x00\x00\x00\x00\x00\x00\x00\x00\x00\x00\x00\x00\x00\x00\x00\x00\x00\x00\x00\x00\x00\xf0?'
p899
tp900
bsg58
g59
sg41
(dp901
I140205099920016
g864
ssbsg41
(dp902
I140205099920080
g861
ssg58
g59
sbsg74
I2
sg75
g81
sg41
(dp903
I140205099920208
g0
(g16
g2
Ntp904
Rp905
(dp906
g14
I1
sg20
g0
(g21
g2
Ntp907
Rp908
(dp909
g14
I1
sg25
g26
(g27
(I0
tp910
g29
tp911
Rp912
(I1
(I2
tp913
g36
I00
S'H\xaf\xbc\x9a\xf2\xd7z>H\xaf\xbc\x9a\xf2\xd7z>'
p914
tp915
bsg41
(dp916
I140205099920208
g905
ssg43
g26
(g27
(I0
tp917
g29
tp918
Rp919
(I1
(I2
I2
tp920
g36
I00
S'\x00\x00\x00\x00\x00\x00\x00\x00\x00\x00\x00\x00\x00\x00\x00\x00\x00\x00\x00\x00\x00\x00\xf0?\x00\x00\x00\x00\x00\x00\xf0?'
p921
tp922
bsg50
g26
(g27
(I0
tp923
g29
tp924
Rp925
(I1
(I2
I2
tp926
g36
I00
S'\x00\x00\x00\x00\x00\x00\x00\x00\x00\x00\x00\x00\x00\x00\x00\x00\x00\x00\x00\x00\x00\x00\xf0?\x00\x00\x00\x00\x00\x00\xf0?'
p927
tp928
bsg57
I01
sg58
g59
sbsg60
g861
sg50
Nsg41
(dp929
sg58
g59
sbssg58
g59
sbsI140205116361680
g77
sI140205116361872
g259
sI140205116361936
g180
sI140205100037968
g0
(g68
g2
Ntp930
Rp931
(dp932
g14
I1
sg72
I2
sg73
g0
(g68
g2
Ntp933
Rp934
(dp935
g14
I1
sg72
I2
sg73
g0
(g79
g2
Ntp936
Rp937
(dp938
g14
I1
sg83
Nsg84
Nsg85
g0
(g21
g2
Ntp939
Rp940
(dp941
g14
I1
sg25
g26
(g27
(I0
tp942
g29
tp943
Rp944
(I1
(I2
tp945
g36
I00
S'H\xaf\xbc\x9a\xf2\xd7z>H\xaf\xbc\x9a\xf2\xd7z>'
p946
tp947
bsg41
(dp948
I140205100037776
g937
ssg43
g26
(g27
(I0
tp949
g29
tp950
Rp951
(I1
(I2
I2
tp952
g36
I00
S'\x00\x00\x00\x00\x00\x00\x00\x00\x00\x00\x00\x00\x00\x00\x00\x00\x00\x00\x00\x00\x00\x00\xf0?\x00\x00\x00\x00\x00\x00\xf0?'
p953
tp954
bsg50
g26
(g27
(I0
tp955
g29
tp956
Rp957
(I1
(I2
I2
tp958
g36
I00
S'\x00\x00\x00\x00\x00\x00\x00\x00\x00\x00\x00\x00\x00\x00\x00\x00\x00\x00\x00\x00\x00\x00\xf0?\x00\x00\x00\x00\x00\x00\xf0?'
p959
tp960
bsg57
I01
sg58
g59
sbsg41
(dp961
I140205100037904
g934
ssg58
g59
sbsg74
I2
sg75
g0
(g139
g2
Ntp962
Rp963
(dp964
g14
I2
sg84
Nsg83
g26
(g27
(I0
tp965
g29
tp966
Rp967
(I1
(I3
I3
tp968
g36
I00
S'\x00\x00\x00\x00\x00\x00\xf0?\x00\x00\x00\x00\x00\x00\x00\x00\x00\x00\x00\x00\x00\x00\x00\x00\x00\x00\x00\x00\x00\x00\x00\x00\x00\x00\x00\x00\x00\x00\xf0?\x00\x00\x00\x00\x00\x00\x00\x00\x00\x00\x00\x00\x00\x00\x00\x00\x00\x00\x00\x00\x00\x00\x00\x00\x00\x00\x00\x00\x00\x00\xf0?'
p969
tp970
bsg58
g59
sg41
(dp971
I140205100037904
g934
ssbsg41
(dp972
I140205100037968
g931
ssg58
g59
sbsg74
I2
sg75
g81
sg41
(dp973
I140205100038096
g0
(g16
g2
Ntp974
Rp975
(dp976
g14
I1
sg20
g0
(g21
g2
Ntp977
Rp978
(dp979
g14
I1
sg25
g26
(g27
(I0
tp980
g29
tp981
Rp982
(I1
(I2
tp983
g36
I00
S'H\xaf\xbc\x9a\xf2\xd7z>H\xaf\xbc\x9a\xf2\xd7z>'
p984
tp985
bsg41
(dp986
I140205100038096
g975
ssg43
g26
(g27
(I0
tp987
g29
tp988
Rp989
(I1
(I2
I2
tp990
g36
I00
S'\x00\x00\x00\x00\x00\x00\x00\x00\x00\x00\x00\x00\x00\x00\x00\x00\x00\x00\x00\x00\x00\x00\xf0?\x00\x00\x00\x00\x00\x00\xf0?'
p991
tp992
bsg50
g26
(g27
(I0
tp993
g29
tp994
Rp995
(I1
(I2
I2
tp996
g36
I00
S'\x00\x00\x00\x00\x00\x00\x00\x00\x00\x00\x00\x00\x00\x00\x00\x00\x00\x00\x00\x00\x00\x00\xf0?\x00\x00\x00\x00\x00\x00\xf0?'
p997
tp998
bsg57
I01
sg58
g59
sbsg60
g931
sg50
Nsg41
(dp999
sg58
g59
sbssg58
g59
sbsI140205099979280
g0
(g68
g2
Ntp1000
Rp1001
(dp1002
g14
I1
sg72
I2
sg73
g0
(g68
g2
Ntp1003
Rp1004
(dp1005
g14
I1
sg72
I2
sg73
g0
(g79
g2
Ntp1006
Rp1007
(dp1008
g14
I1
sg83
Nsg84
Nsg85
g0
(g21
g2
Ntp1009
Rp1010
(dp1011
g14
I1
sg25
g26
(g27
(I0
tp1012
g29
tp1013
Rp1014
(I1
(I2
tp1015
g36
I00
S'H\xaf\xbc\x9a\xf2\xd7z>H\xaf\xbc\x9a\xf2\xd7z>'
p1016
tp1017
bsg41
(dp1018
I140205099979088
g1007
ssg43
g26
(g27
(I0
tp1019
g29
tp1020
Rp1021
(I1
(I2
I2
tp1022
g36
I00
S'\x00\x00\x00\x00\x00\x00\x00\x00\x00\x00\x00\x00\x00\x00\x00\x00\x00\x00\x00\x00\x00\x00\xf0?\x00\x00\x00\x00\x00\x00\xf0?'
p1023
tp1024
bsg50
g26
(g27
(I0
tp1025
g29
tp1026
Rp1027
(I1
(I2
I2
tp1028
g36
I00
S'\x00\x00\x00\x00\x00\x00\x00\x00\x00\x00\x00\x00\x00\x00\x00\x00\x00\x00\x00\x00\x00\x00\xf0?\x00\x00\x00\x00\x00\x00\xf0?'
p1029
tp1030
bsg57
I01
sg58
g59
sbsg41
(dp1031
I140205099979216
g1004
ssg58
g59
sbsg74
I2
sg75
g0
(g139
g2
Ntp1032
Rp1033
(dp1034
g14
I2
sg84
Nsg83
g26
(g27
(I0
tp1035
g29
tp1036
Rp1037
(I1
(I3
I3
tp1038
g36
I00
S'\x00\x00\x00\x00\x00\x00\xf0?\x00\x00\x00\x00\x00\x00\x00\x00\x00\x00\x00\x00\x00\x00\x00\x00\x00\x00\x00\x00\x00\x00\x00\x00\x00\x00\x00\x00\x00\x00\xf0?\x00\x00\x00\x00\x00\x00\x00\x00\x00\x00\x00\x00\x00\x00\x00\x00\x00\x00\x00\x00\x00\x00\x00\x00\x00\x00\x00\x00\x00\x00\xf0?'
p1039
tp1040
bsg58
g59
sg41
(dp1041
I140205099979216
g1004
ssbsg41
(dp1042
I140205099979280
g1001
ssg58
g59
sbsg74
I2
sg75
g81
sg41
(dp1043
I140205099979408
g0
(g16
g2
Ntp1044
Rp1045
(dp1046
g14
I1
sg20
g0
(g21
g2
Ntp1047
Rp1048
(dp1049
g14
I1
sg25
g26
(g27
(I0
tp1050
g29
tp1051
Rp1052
(I1
(I2
tp1053
g36
I00
S'H\xaf\xbc\x9a\xf2\xd7z>H\xaf\xbc\x9a\xf2\xd7z>'
p1054
tp1055
bsg41
(dp1056
I140205099979408
g1045
ssg43
g26
(g27
(I0
tp1057
g29
tp1058
Rp1059
(I1
(I2
I2
tp1060
g36
I00
S'\x00\x00\x00\x00\x00\x00\x00\x00\x00\x00\x00\x00\x00\x00\x00\x00\x00\x00\x00\x00\x00\x00\xf0?\x00\x00\x00\x00\x00\x00\xf0?'
p1061
tp1062
bsg50
g26
(g27
(I0
tp1063
g29
tp1064
Rp1065
(I1
(I2
I2
tp1066
g36
I00
S'\x00\x00\x00\x00\x00\x00\x00\x00\x00\x00\x00\x00\x00\x00\x00\x00\x00\x00\x00\x00\x00\x00\xf0?\x00\x00\x00\x00\x00\x00\xf0?'
p1067
tp1068
bsg57
I01
sg58
g59
sbsg60
g1001
sg50
Nsg41
(dp1069
sg58
g59
sbssg58
g59
sbsI140205099920976
g0
(g68
g2
Ntp1070
Rp1071
(dp1072
g14
I1
sg72
I2
sg73
g0
(g68
g2
Ntp1073
Rp1074
(dp1075
g14
I1
sg72
I2
sg73
g0
(g79
g2
Ntp1076
Rp1077
(dp1078
g14
I1
sg83
Nsg84
Nsg85
g0
(g21
g2
Ntp1079
Rp1080
(dp1081
g14
I1
sg25
g26
(g27
(I0
tp1082
g29
tp1083
Rp1084
(I1
(I2
tp1085
g36
I00
S'H\xaf\xbc\x9a\xf2\xd7z>H\xaf\xbc\x9a\xf2\xd7z>'
p1086
tp1087
bsg41
(dp1088
I140205099920784
g1077
ssg43
g26
(g27
(I0
tp1089
g29
tp1090
Rp1091
(I1
(I2
I2
tp1092
g36
I00
S'\x00\x00\x00\x00\x00\x00\x00\x00\x00\x00\x00\x00\x00\x00\x00\x00\x00\x00\x00\x00\x00\x00\xf0?\x00\x00\x00\x00\x00\x00\xf0?'
p1093
tp1094
bsg50
g26
(g27
(I0
tp1095
g29
tp1096
Rp1097
(I1
(I2
I2
tp1098
g36
I00
S'\x00\x00\x00\x00\x00\x00\x00\x00\x00\x00\x00\x00\x00\x00\x00\x00\x00\x00\x00\x00\x00\x00\xf0?\x00\x00\x00\x00\x00\x00\xf0?'
p1099
tp1100
bsg57
I01
sg58
g59
sbsg41
(dp1101
I140205099920912
g1074
ssg58
g59
sbsg74
I2
sg75
g0
(g139
g2
Ntp1102
Rp1103
(dp1104
g14
I2
sg84
Nsg83
g26
(g27
(I0
tp1105
g29
tp1106
Rp1107
(I1
(I3
I3
tp1108
g36
I00
S'\x00\x00\x00\x00\x00\x00\xf0?\x00\x00\x00\x00\x00\x00\x00\x00\x00\x00\x00\x00\x00\x00\x00\x00\x00\x00\x00\x00\x00\x00\x00\x00\x00\x00\x00\x00\x00\x00\xf0?\x00\x00\x00\x00\x00\x00\x00\x00\x00\x00\x00\x00\x00\x00\x00\x00\x00\x00\x00\x00\x00\x00\x00\x00\x00\x00\x00\x00\x00\x00\xf0?'
p1109
tp1110
bsg58
g59
sg41
(dp1111
I140205099920912
g1074
ssbsg41
(dp1112
I140205099920976
g1071
ssg58
g59
sbsg74
I2
sg75
g81
sg41
(dp1113
I140205099921104
g0
(g16
g2
Ntp1114
Rp1115
(dp1116
g14
I1
sg20
g0
(g21
g2
Ntp1117
Rp1118
(dp1119
g14
I1
sg25
g26
(g27
(I0
tp1120
g29
tp1121
Rp1122
(I1
(I2
tp1123
g36
I00
S'H\xaf\xbc\x9a\xf2\xd7z>H\xaf\xbc\x9a\xf2\xd7z>'
p1124
tp1125
bsg41
(dp1126
I140205099921104
g1115
ssg43
g26
(g27
(I0
tp1127
g29
tp1128
Rp1129
(I1
(I2
I2
tp1130
g36
I00
S'\x00\x00\x00\x00\x00\x00\x00\x00\x00\x00\x00\x00\x00\x00\x00\x00\x00\x00\x00\x00\x00\x00\xf0?\x00\x00\x00\x00\x00\x00\xf0?'
p1131
tp1132
bsg50
g26
(g27
(I0
tp1133
g29
tp1134
Rp1135
(I1
(I2
I2
tp1136
g36
I00
S'\x00\x00\x00\x00\x00\x00\x00\x00\x00\x00\x00\x00\x00\x00\x00\x00\x00\x00\x00\x00\x00\x00\xf0?\x00\x00\x00\x00\x00\x00\xf0?'
p1137
tp1138
bsg57
I01
sg58
g59
sbsg60
g1071
sg50
Nsg41
(dp1139
sg58
g59
sbssg58
g59
sbsI140205100091664
g0
(g68
g2
Ntp1140
Rp1141
(dp1142
g14
I1
sg72
I2
sg73
g0
(g68
g2
Ntp1143
Rp1144
(dp1145
g14
I1
sg72
I2
sg73
g0
(g79
g2
Ntp1146
Rp1147
(dp1148
g14
I1
sg83
Nsg84
Nsg85
g0
(g21
g2
Ntp1149
Rp1150
(dp1151
g14
I1
sg25
g26
(g27
(I0
tp1152
g29
tp1153
Rp1154
(I1
(I2
tp1155
g36
I00
S'H\xaf\xbc\x9a\xf2\xd7z>H\xaf\xbc\x9a\xf2\xd7z>'
p1156
tp1157
bsg41
(dp1158
I140205100091472
g1147
ssg43
g26
(g27
(I0
tp1159
g29
tp1160
Rp1161
(I1
(I2
I2
tp1162
g36
I00
S'\x00\x00\x00\x00\x00\x00\x00\x00\x00\x00\x00\x00\x00\x00\x00\x00\x00\x00\x00\x00\x00\x00\xf0?\x00\x00\x00\x00\x00\x00\xf0?'
p1163
tp1164
bsg50
g26
(g27
(I0
tp1165
g29
tp1166
Rp1167
(I1
(I2
I2
tp1168
g36
I00
S'\x00\x00\x00\x00\x00\x00\x00\x00\x00\x00\x00\x00\x00\x00\x00\x00\x00\x00\x00\x00\x00\x00\xf0?\x00\x00\x00\x00\x00\x00\xf0?'
p1169
tp1170
bsg57
I01
sg58
g59
sbsg41
(dp1171
I140205100091600
g1144
ssg58
g59
sbsg74
I2
sg75
g0
(g139
g2
Ntp1172
Rp1173
(dp1174
g14
I2
sg84
Nsg83
g26
(g27
(I0
tp1175
g29
tp1176
Rp1177
(I1
(I3
I3
tp1178
g36
I00
S'\x00\x00\x00\x00\x00\x00\xf0?\x00\x00\x00\x00\x00\x00\x00\x00\x00\x00\x00\x00\x00\x00\x00\x00\x00\x00\x00\x00\x00\x00\x00\x00\x00\x00\x00\x00\x00\x00\xf0?\x00\x00\x00\x00\x00\x00\x00\x00\x00\x00\x00\x00\x00\x00\x00\x00\x00\x00\x00\x00\x00\x00\x00\x00\x00\x00\x00\x00\x00\x00\xf0?'
p1179
tp1180
bsg58
g59
sg41
(dp1181
I140205100091600
g1144
ssbsg41
(dp1182
I140205100091664
g1141
ssg58
g59
sbsg74
I2
sg75
g81
sg41
(dp1183
I140205100091792
g0
(g16
g2
Ntp1184
Rp1185
(dp1186
g14
I1
sg20
g0
(g21
g2
Ntp1187
Rp1188
(dp1189
g14
I1
sg25
g26
(g27
(I0
tp1190
g29
tp1191
Rp1192
(I1
(I2
tp1193
g36
I00
S'H\xaf\xbc\x9a\xf2\xd7z>H\xaf\xbc\x9a\xf2\xd7z>'
p1194
tp1195
bsg41
(dp1196
I140205100091792
g1185
ssg43
g26
(g27
(I0
tp1197
g29
tp1198
Rp1199
(I1
(I2
I2
tp1200
g36
I00
S'\x00\x00\x00\x00\x00\x00\x00\x00\x00\x00\x00\x00\x00\x00\x00\x00\x00\x00\x00\x00\x00\x00\xf0?\x00\x00\x00\x00\x00\x00\xf0?'
p1201
tp1202
bsg50
g26
(g27
(I0
tp1203
g29
tp1204
Rp1205
(I1
(I2
I2
tp1206
g36
I00
S'\x00\x00\x00\x00\x00\x00\x00\x00\x00\x00\x00\x00\x00\x00\x00\x00\x00\x00\x00\x00\x00\x00\xf0?\x00\x00\x00\x00\x00\x00\xf0?'
p1207
tp1208
bsg57
I01
sg58
g59
sbsg60
g1141
sg50
Nsg41
(dp1209
sg58
g59
sbssg58
g59
sbsI140205100090768
g0
(g68
g2
Ntp1210
Rp1211
(dp1212
g14
I1
sg72
I2
sg73
g0
(g68
g2
Ntp1213
Rp1214
(dp1215
g14
I1
sg72
I2
sg73
g0
(g79
g2
Ntp1216
Rp1217
(dp1218
g14
I1
sg83
Nsg84
Nsg85
g0
(g21
g2
Ntp1219
Rp1220
(dp1221
g14
I1
sg25
g26
(g27
(I0
tp1222
g29
tp1223
Rp1224
(I1
(I2
tp1225
g36
I00
S'H\xaf\xbc\x9a\xf2\xd7z>H\xaf\xbc\x9a\xf2\xd7z>'
p1226
tp1227
bsg41
(dp1228
I140205100090576
g1217
ssg43
g26
(g27
(I0
tp1229
g29
tp1230
Rp1231
(I1
(I2
I2
tp1232
g36
I00
S'\x00\x00\x00\x00\x00\x00\x00\x00\x00\x00\x00\x00\x00\x00\x00\x00\x00\x00\x00\x00\x00\x00\xf0?\x00\x00\x00\x00\x00\x00\xf0?'
p1233
tp1234
bsg50
g26
(g27
(I0
tp1235
g29
tp1236
Rp1237
(I1
(I2
I2
tp1238
g36
I00
S'\x00\x00\x00\x00\x00\x00\x00\x00\x00\x00\x00\x00\x00\x00\x00\x00\x00\x00\x00\x00\x00\x00\xf0?\x00\x00\x00\x00\x00\x00\xf0?'
p1239
tp1240
bsg57
I01
sg58
g59
sbsg41
(dp1241
I140205100090704
g1214
ssg58
g59
sbsg74
I2
sg75
g0
(g139
g2
Ntp1242
Rp1243
(dp1244
g14
I2
sg84
Nsg83
g26
(g27
(I0
tp1245
g29
tp1246
Rp1247
(I1
(I3
I3
tp1248
g36
I00
S'\x00\x00\x00\x00\x00\x00\xf0?\x00\x00\x00\x00\x00\x00\x00\x00\x00\x00\x00\x00\x00\x00\x00\x00\x00\x00\x00\x00\x00\x00\x00\x00\x00\x00\x00\x00\x00\x00\xf0?\x00\x00\x00\x00\x00\x00\x00\x00\x00\x00\x00\x00\x00\x00\x00\x00\x00\x00\x00\x00\x00\x00\x00\x00\x00\x00\x00\x00\x00\x00\xf0?'
p1249
tp1250
bsg58
g59
sg41
(dp1251
I140205100090704
g1214
ssbsg41
(dp1252
I140205100090768
g1211
ssg58
g59
sbsg74
I2
sg75
g81
sg41
(dp1253
I140205100090896
g0
(g16
g2
Ntp1254
Rp1255
(dp1256
g14
I1
sg20
g0
(g21
g2
Ntp1257
Rp1258
(dp1259
g14
I1
sg25
g26
(g27
(I0
tp1260
g29
tp1261
Rp1262
(I1
(I2
tp1263
g36
I00
S'H\xaf\xbc\x9a\xf2\xd7z>H\xaf\xbc\x9a\xf2\xd7z>'
p1264
tp1265
bsg41
(dp1266
I140205100090896
g1255
ssg43
g26
(g27
(I0
tp1267
g29
tp1268
Rp1269
(I1
(I2
I2
tp1270
g36
I00
S'\x00\x00\x00\x00\x00\x00\x00\x00\x00\x00\x00\x00\x00\x00\x00\x00\x00\x00\x00\x00\x00\x00\xf0?\x00\x00\x00\x00\x00\x00\xf0?'
p1271
tp1272
bsg50
g26
(g27
(I0
tp1273
g29
tp1274
Rp1275
(I1
(I2
I2
tp1276
g36
I00
S'\x00\x00\x00\x00\x00\x00\x00\x00\x00\x00\x00\x00\x00\x00\x00\x00\x00\x00\x00\x00\x00\x00\xf0?\x00\x00\x00\x00\x00\x00\xf0?'
p1277
tp1278
bsg57
I01
sg58
g59
sbsg60
g1211
sg50
Nsg41
(dp1279
sg58
g59
sbssg58
g59
sbsI140205100206032
g0
(g68
g2
Ntp1280
Rp1281
(dp1282
g14
I1
sg72
I2
sg73
g0
(g68
g2
Ntp1283
Rp1284
(dp1285
g14
I1
sg72
I2
sg73
g0
(g79
g2
Ntp1286
Rp1287
(dp1288
g14
I1
sg83
Nsg84
Nsg85
g0
(g21
g2
Ntp1289
Rp1290
(dp1291
g14
I1
sg25
g26
(g27
(I0
tp1292
g29
tp1293
Rp1294
(I1
(I2
tp1295
g36
I00
S'H\xaf\xbc\x9a\xf2\xd7z>H\xaf\xbc\x9a\xf2\xd7z>'
p1296
tp1297
bsg41
(dp1298
I140205100206928
g1287
ssg43
g26
(g27
(I0
tp1299
g29
tp1300
Rp1301
(I1
(I2
I2
tp1302
g36
I00
S'\x00\x00\x00\x00\x00\x00\x00\x00\x00\x00\x00\x00\x00\x00\x00\x00\x00\x00\x00\x00\x00\x00\xf0?\x00\x00\x00\x00\x00\x00\xf0?'
p1303
tp1304
bsg50
g26
(g27
(I0
tp1305
g29
tp1306
Rp1307
(I1
(I2
I2
tp1308
g36
I00
S'\x00\x00\x00\x00\x00\x00\x00\x00\x00\x00\x00\x00\x00\x00\x00\x00\x00\x00\x00\x00\x00\x00\xf0?\x00\x00\x00\x00\x00\x00\xf0?'
p1309
tp1310
bsg57
I01
sg58
g59
sbsg41
(dp1311
I140205100353680
g1284
ssg58
g59
sbsg74
I2
sg75
g0
(g139
g2
Ntp1312
Rp1313
(dp1314
g14
I2
sg84
Nsg83
g26
(g27
(I0
tp1315
g29
tp1316
Rp1317
(I1
(I3
I3
tp1318
g36
I00
S'\x00\x00\x00\x00\x00\x00\xf0?\x00\x00\x00\x00\x00\x00\x00\x00\x00\x00\x00\x00\x00\x00\x00\x00\x00\x00\x00\x00\x00\x00\x00\x00\x00\x00\x00\x00\x00\x00\xf0?\x00\x00\x00\x00\x00\x00\x00\x00\x00\x00\x00\x00\x00\x00\x00\x00\x00\x00\x00\x00\x00\x00\x00\x00\x00\x00\x00\x00\x00\x00\xf0?'
p1319
tp1320
bsg58
g59
sg41
(dp1321
I140205100353680
g1284
ssbsg41
(dp1322
I140205100206032
g1281
ssg58
g59
sbsg74
I2
sg75
g81
sg41
(dp1323
I140205100155856
g0
(g16
g2
Ntp1324
Rp1325
(dp1326
g14
I1
sg20
g0
(g21
g2
Ntp1327
Rp1328
(dp1329
g14
I1
sg25
g26
(g27
(I0
tp1330
g29
tp1331
Rp1332
(I1
(I2
tp1333
g36
I00
S'H\xaf\xbc\x9a\xf2\xd7z>H\xaf\xbc\x9a\xf2\xd7z>'
p1334
tp1335
bsg41
(dp1336
I140205100155856
g1325
ssg43
g26
(g27
(I0
tp1337
g29
tp1338
Rp1339
(I1
(I2
I2
tp1340
g36
I00
S'\x00\x00\x00\x00\x00\x00\x00\x00\x00\x00\x00\x00\x00\x00\x00\x00\x00\x00\x00\x00\x00\x00\xf0?\x00\x00\x00\x00\x00\x00\xf0?'
p1341
tp1342
bsg50
g26
(g27
(I0
tp1343
g29
tp1344
Rp1345
(I1
(I2
I2
tp1346
g36
I00
S'\x00\x00\x00\x00\x00\x00\x00\x00\x00\x00\x00\x00\x00\x00\x00\x00\x00\x00\x00\x00\x00\x00\xf0?\x00\x00\x00\x00\x00\x00\xf0?'
p1347
tp1348
bsg57
I01
sg58
g59
sbsg60
g1281
sg50
Nsg41
(dp1349
sg58
g59
sbssg58
g59
sbsI140205099982800
g0
(g68
g2
Ntp1350
Rp1351
(dp1352
g14
I1
sg72
I2
sg73
g0
(g68
g2
Ntp1353
Rp1354
(dp1355
g14
I1
sg72
I2
sg73
g0
(g79
g2
Ntp1356
Rp1357
(dp1358
g14
I1
sg83
Nsg84
Nsg85
g0
(g21
g2
Ntp1359
Rp1360
(dp1361
g14
I1
sg25
g26
(g27
(I0
tp1362
g29
tp1363
Rp1364
(I1
(I2
tp1365
g36
I00
S'H\xaf\xbc\x9a\xf2\xd7z>H\xaf\xbc\x9a\xf2\xd7z>'
p1366
tp1367
bsg41
(dp1368
I140205099982608
g1357
ssg43
g26
(g27
(I0
tp1369
g29
tp1370
Rp1371
(I1
(I2
I2
tp1372
g36
I00
S'\x00\x00\x00\x00\x00\x00\x00\x00\x00\x00\x00\x00\x00\x00\x00\x00\x00\x00\x00\x00\x00\x00\xf0?\x00\x00\x00\x00\x00\x00\xf0?'
p1373
tp1374
bsg50
g26
(g27
(I0
tp1375
g29
tp1376
Rp1377
(I1
(I2
I2
tp1378
g36
I00
S'\x00\x00\x00\x00\x00\x00\x00\x00\x00\x00\x00\x00\x00\x00\x00\x00\x00\x00\x00\x00\x00\x00\xf0?\x00\x00\x00\x00\x00\x00\xf0?'
p1379
tp1380
bsg57
I01
sg58
g59
sbsg41
(dp1381
I140205099982736
g1354
ssg58
g59
sbsg74
I2
sg75
g0
(g139
g2
Ntp1382
Rp1383
(dp1384
g14
I2
sg84
Nsg83
g26
(g27
(I0
tp1385
g29
tp1386
Rp1387
(I1
(I3
I3
tp1388
g36
I00
S'\x00\x00\x00\x00\x00\x00\xf0?\x00\x00\x00\x00\x00\x00\x00\x00\x00\x00\x00\x00\x00\x00\x00\x00\x00\x00\x00\x00\x00\x00\x00\x00\x00\x00\x00\x00\x00\x00\xf0?\x00\x00\x00\x00\x00\x00\x00\x00\x00\x00\x00\x00\x00\x00\x00\x00\x00\x00\x00\x00\x00\x00\x00\x00\x00\x00\x00\x00\x00\x00\xf0?'
p1389
tp1390
bsg58
g59
sg41
(dp1391
I140205099982736
g1354
ssbsg41
(dp1392
I140205099982800
g1351
ssg58
g59
sbsg74
I2
sg75
g81
sg41
(dp1393
I140205100036240
g0
(g16
g2
Ntp1394
Rp1395
(dp1396
g14
I1
sg20
g0
(g21
g2
Ntp1397
Rp1398
(dp1399
g14
I1
sg25
g26
(g27
(I0
tp1400
g29
tp1401
Rp1402
(I1
(I2
tp1403
g36
I00
S'H\xaf\xbc\x9a\xf2\xd7z>H\xaf\xbc\x9a\xf2\xd7z>'
p1404
tp1405
bsg41
(dp1406
I140205100036240
g1395
ssg43
g26
(g27
(I0
tp1407
g29
tp1408
Rp1409
(I1
(I2
I2
tp1410
g36
I00
S'\x00\x00\x00\x00\x00\x00\x00\x00\x00\x00\x00\x00\x00\x00\x00\x00\x00\x00\x00\x00\x00\x00\xf0?\x00\x00\x00\x00\x00\x00\xf0?'
p1411
tp1412
bsg50
g26
(g27
(I0
tp1413
g29
tp1414
Rp1415
(I1
(I2
I2
tp1416
g36
I00
S'\x00\x00\x00\x00\x00\x00\x00\x00\x00\x00\x00\x00\x00\x00\x00\x00\x00\x00\x00\x00\x00\x00\xf0?\x00\x00\x00\x00\x00\x00\xf0?'
p1417
tp1418
bsg57
I01
sg58
g59
sbsg60
g1351
sg50
Nsg41
(dp1419
sg58
g59
sbssg58
g59
sbsI140205100092560
g0
(g68
g2
Ntp1420
Rp1421
(dp1422
g14
I1
sg72
I2
sg73
g0
(g68
g2
Ntp1423
Rp1424
(dp1425
g14
I1
sg72
I2
sg73
g0
(g79
g2
Ntp1426
Rp1427
(dp1428
g14
I1
sg83
Nsg84
Nsg85
g0
(g21
g2
Ntp1429
Rp1430
(dp1431
g14
I1
sg25
g26
(g27
(I0
tp1432
g29
tp1433
Rp1434
(I1
(I2
tp1435
g36
I00
S'H\xaf\xbc\x9a\xf2\xd7z>H\xaf\xbc\x9a\xf2\xd7z>'
p1436
tp1437
bsg41
(dp1438
I140205100092368
g1427
ssg43
g26
(g27
(I0
tp1439
g29
tp1440
Rp1441
(I1
(I2
I2
tp1442
g36
I00
S'\x00\x00\x00\x00\x00\x00\x00\x00\x00\x00\x00\x00\x00\x00\x00\x00\x00\x00\x00\x00\x00\x00\xf0?\x00\x00\x00\x00\x00\x00\xf0?'
p1443
tp1444
bsg50
g26
(g27
(I0
tp1445
g29
tp1446
Rp1447
(I1
(I2
I2
tp1448
g36
I00
S'\x00\x00\x00\x00\x00\x00\x00\x00\x00\x00\x00\x00\x00\x00\x00\x00\x00\x00\x00\x00\x00\x00\xf0?\x00\x00\x00\x00\x00\x00\xf0?'
p1449
tp1450
bsg57
I01
sg58
g59
sbsg41
(dp1451
I140205100092496
g1424
ssg58
g59
sbsg74
I2
sg75
g0
(g139
g2
Ntp1452
Rp1453
(dp1454
g14
I2
sg84
Nsg83
g26
(g27
(I0
tp1455
g29
tp1456
Rp1457
(I1
(I3
I3
tp1458
g36
I00
S'\x00\x00\x00\x00\x00\x00\xf0?\x00\x00\x00\x00\x00\x00\x00\x00\x00\x00\x00\x00\x00\x00\x00\x00\x00\x00\x00\x00\x00\x00\x00\x00\x00\x00\x00\x00\x00\x00\xf0?\x00\x00\x00\x00\x00\x00\x00\x00\x00\x00\x00\x00\x00\x00\x00\x00\x00\x00\x00\x00\x00\x00\x00\x00\x00\x00\x00\x00\x00\x00\xf0?'
p1459
tp1460
bsg58
g59
sg41
(dp1461
I140205100092496
g1424
ssbsg41
(dp1462
I140205100092560
g1421
ssg58
g59
sbsg74
I2
sg75
g81
sg41
(dp1463
I140205100092688
g0
(g16
g2
Ntp1464
Rp1465
(dp1466
g14
I1
sg20
g0
(g21
g2
Ntp1467
Rp1468
(dp1469
g14
I1
sg25
g26
(g27
(I0
tp1470
g29
tp1471
Rp1472
(I1
(I2
tp1473
g36
I00
S'H\xaf\xbc\x9a\xf2\xd7z>H\xaf\xbc\x9a\xf2\xd7z>'
p1474
tp1475
bsg41
(dp1476
I140205100092688
g1465
ssg43
g26
(g27
(I0
tp1477
g29
tp1478
Rp1479
(I1
(I2
I2
tp1480
g36
I00
S'\x00\x00\x00\x00\x00\x00\x00\x00\x00\x00\x00\x00\x00\x00\x00\x00\x00\x00\x00\x00\x00\x00\xf0?\x00\x00\x00\x00\x00\x00\xf0?'
p1481
tp1482
bsg50
g26
(g27
(I0
tp1483
g29
tp1484
Rp1485
(I1
(I2
I2
tp1486
g36
I00
S'\x00\x00\x00\x00\x00\x00\x00\x00\x00\x00\x00\x00\x00\x00\x00\x00\x00\x00\x00\x00\x00\x00\xf0?\x00\x00\x00\x00\x00\x00\xf0?'
p1487
tp1488
bsg57
I01
sg58
g59
sbsg60
g1421
sg50
Nsg41
(dp1489
sg58
g59
sbssg58
g59
sbsI140205100249168
g0
(g68
g2
Ntp1490
Rp1491
(dp1492
g14
I1
sg72
I2
sg73
g0
(g68
g2
Ntp1493
Rp1494
(dp1495
g14
I1
sg72
I2
sg73
g0
(g79
g2
Ntp1496
Rp1497
(dp1498
g14
I1
sg83
Nsg84
Nsg85
g0
(g21
g2
Ntp1499
Rp1500
(dp1501
g14
I1
sg25
g26
(g27
(I0
tp1502
g29
tp1503
Rp1504
(I1
(I2
tp1505
g36
I00
S'H\xaf\xbc\x9a\xf2\xd7z>H\xaf\xbc\x9a\xf2\xd7z>'
p1506
tp1507
bsg41
(dp1508
I140205100157968
g1497
ssg43
g26
(g27
(I0
tp1509
g29
tp1510
Rp1511
(I1
(I2
I2
tp1512
g36
I00
S'\x00\x00\x00\x00\x00\x00\x00\x00\x00\x00\x00\x00\x00\x00\x00\x00\x00\x00\x00\x00\x00\x00\xf0?\x00\x00\x00\x00\x00\x00\xf0?'
p1513
tp1514
bsg50
g26
(g27
(I0
tp1515
g29
tp1516
Rp1517
(I1
(I2
I2
tp1518
g36
I00
S'\x00\x00\x00\x00\x00\x00\x00\x00\x00\x00\x00\x00\x00\x00\x00\x00\x00\x00\x00\x00\x00\x00\xf0?\x00\x00\x00\x00\x00\x00\xf0?'
p1519
tp1520
bsg57
I01
sg58
g59
sbsg41
(dp1521
I140205116432144
g1494
ssg58
g59
sbsg74
I2
sg75
g0
(g139
g2
Ntp1522
Rp1523
(dp1524
g14
I2
sg84
Nsg83
g26
(g27
(I0
tp1525
g29
tp1526
Rp1527
(I1
(I3
I3
tp1528
g36
I00
S'\x00\x00\x00\x00\x00\x00\xf0?\x00\x00\x00\x00\x00\x00\x00\x00\x00\x00\x00\x00\x00\x00\x00\x00\x00\x00\x00\x00\x00\x00\x00\x00\x00\x00\x00\x00\x00\x00\xf0?\x00\x00\x00\x00\x00\x00\x00\x00\x00\x00\x00\x00\x00\x00\x00\x00\x00\x00\x00\x00\x00\x00\x00\x00\x00\x00\x00\x00\x00\x00\xf0?'
p1529
tp1530
bsg58
g59
sg41
(dp1531
I140205116432144
g1494
ssbsg41
(dp1532
I140205100249168
g1491
ssg58
g59
sbsg74
I2
sg75
g81
sg41
(dp1533
I140205100251536
g0
(g16
g2
Ntp1534
Rp1535
(dp1536
g14
I1
sg20
g0
(g21
g2
Ntp1537
Rp1538
(dp1539
g14
I1
sg25
g26
(g27
(I0
tp1540
g29
tp1541
Rp1542
(I1
(I2
tp1543
g36
I00
S'H\xaf\xbc\x9a\xf2\xd7z>H\xaf\xbc\x9a\xf2\xd7z>'
p1544
tp1545
bsg41
(dp1546
I140205100251536
g1535
ssg43
g26
(g27
(I0
tp1547
g29
tp1548
Rp1549
(I1
(I2
I2
tp1550
g36
I00
S'\x00\x00\x00\x00\x00\x00\x00\x00\x00\x00\x00\x00\x00\x00\x00\x00\x00\x00\x00\x00\x00\x00\xf0?\x00\x00\x00\x00\x00\x00\xf0?'
p1551
tp1552
bsg50
g26
(g27
(I0
tp1553
g29
tp1554
Rp1555
(I1
(I2
I2
tp1556
g36
I00
S'\x00\x00\x00\x00\x00\x00\x00\x00\x00\x00\x00\x00\x00\x00\x00\x00\x00\x00\x00\x00\x00\x00\xf0?\x00\x00\x00\x00\x00\x00\xf0?'
p1557
tp1558
bsg57
I01
sg58
g59
sbsg60
g1491
sg50
Nsg41
(dp1559
sg58
g59
sbssg58
g59
sbsI140205100038864
g0
(g68
g2
Ntp1560
Rp1561
(dp1562
g14
I1
sg72
I2
sg73
g0
(g68
g2
Ntp1563
Rp1564
(dp1565
g14
I1
sg72
I2
sg73
g0
(g79
g2
Ntp1566
Rp1567
(dp1568
g14
I1
sg83
Nsg84
Nsg85
g0
(g21
g2
Ntp1569
Rp1570
(dp1571
g14
I1
sg25
g26
(g27
(I0
tp1572
g29
tp1573
Rp1574
(I1
(I2
tp1575
g36
I00
S'H\xaf\xbc\x9a\xf2\xd7z>H\xaf\xbc\x9a\xf2\xd7z>'
p1576
tp1577
bsg41
(dp1578
I140205100038672
g1567
ssg43
g26
(g27
(I0
tp1579
g29
tp1580
Rp1581
(I1
(I2
I2
tp1582
g36
I00
S'\x00\x00\x00\x00\x00\x00\x00\x00\x00\x00\x00\x00\x00\x00\x00\x00\x00\x00\x00\x00\x00\x00\xf0?\x00\x00\x00\x00\x00\x00\xf0?'
p1583
tp1584
bsg50
g26
(g27
(I0
tp1585
g29
tp1586
Rp1587
(I1
(I2
I2
tp1588
g36
I00
S'\x00\x00\x00\x00\x00\x00\x00\x00\x00\x00\x00\x00\x00\x00\x00\x00\x00\x00\x00\x00\x00\x00\xf0?\x00\x00\x00\x00\x00\x00\xf0?'
p1589
tp1590
bsg57
I01
sg58
g59
sbsg41
(dp1591
I140205100038800
g1564
ssg58
g59
sbsg74
I2
sg75
g0
(g139
g2
Ntp1592
Rp1593
(dp1594
g14
I2
sg84
Nsg83
g26
(g27
(I0
tp1595
g29
tp1596
Rp1597
(I1
(I3
I3
tp1598
g36
I00
S'\x00\x00\x00\x00\x00\x00\xf0?\x00\x00\x00\x00\x00\x00\x00\x00\x00\x00\x00\x00\x00\x00\x00\x00\x00\x00\x00\x00\x00\x00\x00\x00\x00\x00\x00\x00\x00\x00\xf0?\x00\x00\x00\x00\x00\x00\x00\x00\x00\x00\x00\x00\x00\x00\x00\x00\x00\x00\x00\x00\x00\x00\x00\x00\x00\x00\x00\x00\x00\x00\xf0?'
p1599
tp1600
bsg58
g59
sg41
(dp1601
I140205100038800
g1564
ssbsg41
(dp1602
I140205100038864
g1561
ssg58
g59
sbsg74
I2
sg75
g81
sg41
(dp1603
I140205100038992
g0
(g16
g2
Ntp1604
Rp1605
(dp1606
g14
I1
sg20
g0
(g21
g2
Ntp1607
Rp1608
(dp1609
g14
I1
sg25
g26
(g27
(I0
tp1610
g29
tp1611
Rp1612
(I1
(I2
tp1613
g36
I00
S'H\xaf\xbc\x9a\xf2\xd7z>H\xaf\xbc\x9a\xf2\xd7z>'
p1614
tp1615
bsg41
(dp1616
I140205100038992
g1605
ssg43
g26
(g27
(I0
tp1617
g29
tp1618
Rp1619
(I1
(I2
I2
tp1620
g36
I00
S'\x00\x00\x00\x00\x00\x00\x00\x00\x00\x00\x00\x00\x00\x00\x00\x00\x00\x00\x00\x00\x00\x00\xf0?\x00\x00\x00\x00\x00\x00\xf0?'
p1621
tp1622
bsg50
g26
(g27
(I0
tp1623
g29
tp1624
Rp1625
(I1
(I2
I2
tp1626
g36
I00
S'\x00\x00\x00\x00\x00\x00\x00\x00\x00\x00\x00\x00\x00\x00\x00\x00\x00\x00\x00\x00\x00\x00\xf0?\x00\x00\x00\x00\x00\x00\xf0?'
p1627
tp1628
bsg57
I01
sg58
g59
sbsg60
g1561
sg50
Nsg41
(dp1629
sg58
g59
sbssg58
g59
sbsI140205099709968
g0
(g68
g2
Ntp1630
Rp1631
(dp1632
g14
I1
sg72
I2
sg73
g0
(g68
g2
Ntp1633
Rp1634
(dp1635
g14
I1
sg72
I2
sg73
g0
(g79
g2
Ntp1636
Rp1637
(dp1638
g14
I1
sg83
Nsg84
Nsg85
g0
(g21
g2
Ntp1639
Rp1640
(dp1641
g14
I1
sg25
g26
(g27
(I0
tp1642
g29
tp1643
Rp1644
(I1
(I2
tp1645
g36
I00
S'H\xaf\xbc\x9a\xf2\xd7z>H\xaf\xbc\x9a\xf2\xd7z>'
p1646
tp1647
bsg41
(dp1648
I140205099709776
g1637
ssg43
g26
(g27
(I0
tp1649
g29
tp1650
Rp1651
(I1
(I2
I2
tp1652
g36
I00
S'\x00\x00\x00\x00\x00\x00\x00\x00\x00\x00\x00\x00\x00\x00\x00\x00\x00\x00\x00\x00\x00\x00\xf0?\x00\x00\x00\x00\x00\x00\xf0?'
p1653
tp1654
bsg50
g26
(g27
(I0
tp1655
g29
tp1656
Rp1657
(I1
(I2
I2
tp1658
g36
I00
S'\x00\x00\x00\x00\x00\x00\x00\x00\x00\x00\x00\x00\x00\x00\x00\x00\x00\x00\x00\x00\x00\x00\xf0?\x00\x00\x00\x00\x00\x00\xf0?'
p1659
tp1660
bsg57
I01
sg58
g59
sbsg41
(dp1661
I140205099709904
g1634
ssg58
g59
sbsg74
I2
sg75
g0
(g139
g2
Ntp1662
Rp1663
(dp1664
g14
I2
sg84
Nsg83
g26
(g27
(I0
tp1665
g29
tp1666
Rp1667
(I1
(I3
I3
tp1668
g36
I00
S'\x00\x00\x00\x00\x00\x00\xf0?\x00\x00\x00\x00\x00\x00\x00\x00\x00\x00\x00\x00\x00\x00\x00\x00\x00\x00\x00\x00\x00\x00\x00\x00\x00\x00\x00\x00\x00\x00\xf0?\x00\x00\x00\x00\x00\x00\x00\x00\x00\x00\x00\x00\x00\x00\x00\x00\x00\x00\x00\x00\x00\x00\x00\x00\x00\x00\x00\x00\x00\x00\xf0?'
p1669
tp1670
bsg58
g59
sg41
(dp1671
I140205099709904
g1634
ssbsg41
(dp1672
I140205099709968
g1631
ssg58
g59
sbsg74
I2
sg75
g81
sg41
(dp1673
I140205099710096
g0
(g16
g2
Ntp1674
Rp1675
(dp1676
g14
I1
sg20
g0
(g21
g2
Ntp1677
Rp1678
(dp1679
g14
I1
sg25
g26
(g27
(I0
tp1680
g29
tp1681
Rp1682
(I1
(I2
tp1683
g36
I00
S'H\xaf\xbc\x9a\xf2\xd7z>H\xaf\xbc\x9a\xf2\xd7z>'
p1684
tp1685
bsg41
(dp1686
I140205099710096
g1675
ssg43
g26
(g27
(I0
tp1687
g29
tp1688
Rp1689
(I1
(I2
I2
tp1690
g36
I00
S'\x00\x00\x00\x00\x00\x00\x00\x00\x00\x00\x00\x00\x00\x00\x00\x00\x00\x00\x00\x00\x00\x00\xf0?\x00\x00\x00\x00\x00\x00\xf0?'
p1691
tp1692
bsg50
g26
(g27
(I0
tp1693
g29
tp1694
Rp1695
(I1
(I2
I2
tp1696
g36
I00
S'\x00\x00\x00\x00\x00\x00\x00\x00\x00\x00\x00\x00\x00\x00\x00\x00\x00\x00\x00\x00\x00\x00\xf0?\x00\x00\x00\x00\x00\x00\xf0?'
p1697
tp1698
bsg57
I01
sg58
g59
sbsg60
g1631
sg50
Nsg41
(dp1699
sg58
g59
sbssg58
g59
sbsI140205099638352
g0
(g68
g2
Ntp1700
Rp1701
(dp1702
g14
I1
sg72
I2
sg73
g0
(g68
g2
Ntp1703
Rp1704
(dp1705
g14
I1
sg72
I2
sg73
g0
(g79
g2
Ntp1706
Rp1707
(dp1708
g14
I1
sg83
Nsg84
Nsg85
g0
(g21
g2
Ntp1709
Rp1710
(dp1711
g14
I1
sg25
g26
(g27
(I0
tp1712
g29
tp1713
Rp1714
(I1
(I2
tp1715
g36
I00
S'H\xaf\xbc\x9a\xf2\xd7z>H\xaf\xbc\x9a\xf2\xd7z>'
p1716
tp1717
bsg41
(dp1718
I140205099638160
g1707
ssg43
g26
(g27
(I0
tp1719
g29
tp1720
Rp1721
(I1
(I2
I2
tp1722
g36
I00
S'\x00\x00\x00\x00\x00\x00\x00\x00\x00\x00\x00\x00\x00\x00\x00\x00\x00\x00\x00\x00\x00\x00\xf0?\x00\x00\x00\x00\x00\x00\xf0?'
p1723
tp1724
bsg50
g26
(g27
(I0
tp1725
g29
tp1726
Rp1727
(I1
(I2
I2
tp1728
g36
I00
S'\x00\x00\x00\x00\x00\x00\x00\x00\x00\x00\x00\x00\x00\x00\x00\x00\x00\x00\x00\x00\x00\x00\xf0?\x00\x00\x00\x00\x00\x00\xf0?'
p1729
tp1730
bsg57
I01
sg58
g59
sbsg41
(dp1731
I140205099638288
g1704
ssg58
g59
sbsg74
I2
sg75
g0
(g139
g2
Ntp1732
Rp1733
(dp1734
g14
I2
sg84
Nsg83
g26
(g27
(I0
tp1735
g29
tp1736
Rp1737
(I1
(I3
I3
tp1738
g36
I00
S'\x00\x00\x00\x00\x00\x00\xf0?\x00\x00\x00\x00\x00\x00\x00\x00\x00\x00\x00\x00\x00\x00\x00\x00\x00\x00\x00\x00\x00\x00\x00\x00\x00\x00\x00\x00\x00\x00\xf0?\x00\x00\x00\x00\x00\x00\x00\x00\x00\x00\x00\x00\x00\x00\x00\x00\x00\x00\x00\x00\x00\x00\x00\x00\x00\x00\x00\x00\x00\x00\xf0?'
p1739
tp1740
bsg58
g59
sg41
(dp1741
I140205099638288
g1704
ssbsg41
(dp1742
I140205099638352
g1701
ssg58
g59
sbsg74
I2
sg75
g81
sg41
(dp1743
I140205099638480
g0
(g16
g2
Ntp1744
Rp1745
(dp1746
g14
I1
sg20
g0
(g21
g2
Ntp1747
Rp1748
(dp1749
g14
I1
sg25
g26
(g27
(I0
tp1750
g29
tp1751
Rp1752
(I1
(I2
tp1753
g36
I00
S'H\xaf\xbc\x9a\xf2\xd7z>H\xaf\xbc\x9a\xf2\xd7z>'
p1754
tp1755
bsg41
(dp1756
I140205099638480
g1745
ssg43
g26
(g27
(I0
tp1757
g29
tp1758
Rp1759
(I1
(I2
I2
tp1760
g36
I00
S'\x00\x00\x00\x00\x00\x00\x00\x00\x00\x00\x00\x00\x00\x00\x00\x00\x00\x00\x00\x00\x00\x00\xf0?\x00\x00\x00\x00\x00\x00\xf0?'
p1761
tp1762
bsg50
g26
(g27
(I0
tp1763
g29
tp1764
Rp1765
(I1
(I2
I2
tp1766
g36
I00
S'\x00\x00\x00\x00\x00\x00\x00\x00\x00\x00\x00\x00\x00\x00\x00\x00\x00\x00\x00\x00\x00\x00\xf0?\x00\x00\x00\x00\x00\x00\xf0?'
p1767
tp1768
bsg57
I01
sg58
g59
sbsg60
g1701
sg50
Nsg41
(dp1769
sg58
g59
sbssg58
g59
sbsI140205100089872
g0
(g68
g2
Ntp1770
Rp1771
(dp1772
g14
I1
sg72
I2
sg73
g0
(g68
g2
Ntp1773
Rp1774
(dp1775
g14
I1
sg72
I2
sg73
g0
(g79
g2
Ntp1776
Rp1777
(dp1778
g14
I1
sg83
Nsg84
Nsg85
g0
(g21
g2
Ntp1779
Rp1780
(dp1781
g14
I1
sg25
g26
(g27
(I0
tp1782
g29
tp1783
Rp1784
(I1
(I2
tp1785
g36
I00
S'H\xaf\xbc\x9a\xf2\xd7z>H\xaf\xbc\x9a\xf2\xd7z>'
p1786
tp1787
bsg41
(dp1788
I140205100089680
g1777
ssg43
g26
(g27
(I0
tp1789
g29
tp1790
Rp1791
(I1
(I2
I2
tp1792
g36
I00
S'\x00\x00\x00\x00\x00\x00\x00\x00\x00\x00\x00\x00\x00\x00\x00\x00\x00\x00\x00\x00\x00\x00\xf0?\x00\x00\x00\x00\x00\x00\xf0?'
p1793
tp1794
bsg50
g26
(g27
(I0
tp1795
g29
tp1796
Rp1797
(I1
(I2
I2
tp1798
g36
I00
S'\x00\x00\x00\x00\x00\x00\x00\x00\x00\x00\x00\x00\x00\x00\x00\x00\x00\x00\x00\x00\x00\x00\xf0?\x00\x00\x00\x00\x00\x00\xf0?'
p1799
tp1800
bsg57
I01
sg58
g59
sbsg41
(dp1801
I140205100089808
g1774
ssg58
g59
sbsg74
I2
sg75
g0
(g139
g2
Ntp1802
Rp1803
(dp1804
g14
I2
sg84
Nsg83
g26
(g27
(I0
tp1805
g29
tp1806
Rp1807
(I1
(I3
I3
tp1808
g36
I00
S'\x00\x00\x00\x00\x00\x00\xf0?\x00\x00\x00\x00\x00\x00\x00\x00\x00\x00\x00\x00\x00\x00\x00\x00\x00\x00\x00\x00\x00\x00\x00\x00\x00\x00\x00\x00\x00\x00\xf0?\x00\x00\x00\x00\x00\x00\x00\x00\x00\x00\x00\x00\x00\x00\x00\x00\x00\x00\x00\x00\x00\x00\x00\x00\x00\x00\x00\x00\x00\x00\xf0?'
p1809
tp1810
bsg58
g59
sg41
(dp1811
I140205100089808
g1774
ssbsg41
(dp1812
I140205100089872
g1771
ssg58
g59
sbsg74
I2
sg75
g81
sg41
(dp1813
I140205100090000
g0
(g16
g2
Ntp1814
Rp1815
(dp1816
g14
I1
sg20
g0
(g21
g2
Ntp1817
Rp1818
(dp1819
g14
I1
sg25
g26
(g27
(I0
tp1820
g29
tp1821
Rp1822
(I1
(I2
tp1823
g36
I00
S'H\xaf\xbc\x9a\xf2\xd7z>H\xaf\xbc\x9a\xf2\xd7z>'
p1824
tp1825
bsg41
(dp1826
I140205100090000
g1815
ssg43
g26
(g27
(I0
tp1827
g29
tp1828
Rp1829
(I1
(I2
I2
tp1830
g36
I00
S'\x00\x00\x00\x00\x00\x00\x00\x00\x00\x00\x00\x00\x00\x00\x00\x00\x00\x00\x00\x00\x00\x00\xf0?\x00\x00\x00\x00\x00\x00\xf0?'
p1831
tp1832
bsg50
g26
(g27
(I0
tp1833
g29
tp1834
Rp1835
(I1
(I2
I2
tp1836
g36
I00
S'\x00\x00\x00\x00\x00\x00\x00\x00\x00\x00\x00\x00\x00\x00\x00\x00\x00\x00\x00\x00\x00\x00\xf0?\x00\x00\x00\x00\x00\x00\xf0?'
p1837
tp1838
bsg57
I01
sg58
g59
sbsg60
g1771
sg50
Nsg41
(dp1839
sg58
g59
sbssg58
g59
sbsI140205099709008
g0
(g68
g2
Ntp1840
Rp1841
(dp1842
g14
I1
sg72
I2
sg73
g0
(g68
g2
Ntp1843
Rp1844
(dp1845
g14
I1
sg72
I2
sg73
g0
(g79
g2
Ntp1846
Rp1847
(dp1848
g14
I1
sg83
Nsg84
Nsg85
g0
(g21
g2
Ntp1849
Rp1850
(dp1851
g14
I1
sg25
g26
(g27
(I0
tp1852
g29
tp1853
Rp1854
(I1
(I2
tp1855
g36
I00
S'H\xaf\xbc\x9a\xf2\xd7z>H\xaf\xbc\x9a\xf2\xd7z>'
p1856
tp1857
bsg41
(dp1858
I140205099708816
g1847
ssg43
g26
(g27
(I0
tp1859
g29
tp1860
Rp1861
(I1
(I2
I2
tp1862
g36
I00
S'\x00\x00\x00\x00\x00\x00\x00\x00\x00\x00\x00\x00\x00\x00\x00\x00\x00\x00\x00\x00\x00\x00\xf0?\x00\x00\x00\x00\x00\x00\xf0?'
p1863
tp1864
bsg50
g26
(g27
(I0
tp1865
g29
tp1866
Rp1867
(I1
(I2
I2
tp1868
g36
I00
S'\x00\x00\x00\x00\x00\x00\x00\x00\x00\x00\x00\x00\x00\x00\x00\x00\x00\x00\x00\x00\x00\x00\xf0?\x00\x00\x00\x00\x00\x00\xf0?'
p1869
tp1870
bsg57
I01
sg58
g59
sbsg41
(dp1871
I140205099708944
g1844
ssg58
g59
sbsg74
I2
sg75
g0
(g139
g2
Ntp1872
Rp1873
(dp1874
g14
I2
sg84
Nsg83
g26
(g27
(I0
tp1875
g29
tp1876
Rp1877
(I1
(I3
I3
tp1878
g36
I00
S'\x00\x00\x00\x00\x00\x00\xf0?\x00\x00\x00\x00\x00\x00\x00\x00\x00\x00\x00\x00\x00\x00\x00\x00\x00\x00\x00\x00\x00\x00\x00\x00\x00\x00\x00\x00\x00\x00\xf0?\x00\x00\x00\x00\x00\x00\x00\x00\x00\x00\x00\x00\x00\x00\x00\x00\x00\x00\x00\x00\x00\x00\x00\x00\x00\x00\x00\x00\x00\x00\xf0?'
p1879
tp1880
bsg58
g59
sg41
(dp1881
I140205099708944
g1844
ssbsg41
(dp1882
I140205099709008
g1841
ssg58
g59
sbsg74
I2
sg75
g81
sg41
(dp1883
I140205099709136
g0
(g16
g2
Ntp1884
Rp1885
(dp1886
g14
I1
sg20
g0
(g21
g2
Ntp1887
Rp1888
(dp1889
g14
I1
sg25
g26
(g27
(I0
tp1890
g29
tp1891
Rp1892
(I1
(I2
tp1893
g36
I00
S'H\xaf\xbc\x9a\xf2\xd7z>H\xaf\xbc\x9a\xf2\xd7z>'
p1894
tp1895
bsg41
(dp1896
I140205099709136
g1885
ssg43
g26
(g27
(I0
tp1897
g29
tp1898
Rp1899
(I1
(I2
I2
tp1900
g36
I00
S'\x00\x00\x00\x00\x00\x00\x00\x00\x00\x00\x00\x00\x00\x00\x00\x00\x00\x00\x00\x00\x00\x00\xf0?\x00\x00\x00\x00\x00\x00\xf0?'
p1901
tp1902
bsg50
g26
(g27
(I0
tp1903
g29
tp1904
Rp1905
(I1
(I2
I2
tp1906
g36
I00
S'\x00\x00\x00\x00\x00\x00\x00\x00\x00\x00\x00\x00\x00\x00\x00\x00\x00\x00\x00\x00\x00\x00\xf0?\x00\x00\x00\x00\x00\x00\xf0?'
p1907
tp1908
bsg57
I01
sg58
g59
sbsg60
g1841
sg50
Nsg41
(dp1909
sg58
g59
sbssg58
g59
sbsI140205099981968
g0
(g68
g2
Ntp1910
Rp1911
(dp1912
g14
I1
sg72
I2
sg73
g0
(g68
g2
Ntp1913
Rp1914
(dp1915
g14
I1
sg72
I2
sg73
g0
(g79
g2
Ntp1916
Rp1917
(dp1918
g14
I1
sg83
Nsg84
Nsg85
g0
(g21
g2
Ntp1919
Rp1920
(dp1921
g14
I1
sg25
g26
(g27
(I0
tp1922
g29
tp1923
Rp1924
(I1
(I2
tp1925
g36
I00
S'H\xaf\xbc\x9a\xf2\xd7z>H\xaf\xbc\x9a\xf2\xd7z>'
p1926
tp1927
bsg41
(dp1928
I140205099981776
g1917
ssg43
g26
(g27
(I0
tp1929
g29
tp1930
Rp1931
(I1
(I2
I2
tp1932
g36
I00
S'\x00\x00\x00\x00\x00\x00\x00\x00\x00\x00\x00\x00\x00\x00\x00\x00\x00\x00\x00\x00\x00\x00\xf0?\x00\x00\x00\x00\x00\x00\xf0?'
p1933
tp1934
bsg50
g26
(g27
(I0
tp1935
g29
tp1936
Rp1937
(I1
(I2
I2
tp1938
g36
I00
S'\x00\x00\x00\x00\x00\x00\x00\x00\x00\x00\x00\x00\x00\x00\x00\x00\x00\x00\x00\x00\x00\x00\xf0?\x00\x00\x00\x00\x00\x00\xf0?'
p1939
tp1940
bsg57
I01
sg58
g59
sbsg41
(dp1941
I140205099981904
g1914
ssg58
g59
sbsg74
I2
sg75
g0
(g139
g2
Ntp1942
Rp1943
(dp1944
g14
I2
sg84
Nsg83
g26
(g27
(I0
tp1945
g29
tp1946
Rp1947
(I1
(I3
I3
tp1948
g36
I00
S'\x00\x00\x00\x00\x00\x00\xf0?\x00\x00\x00\x00\x00\x00\x00\x00\x00\x00\x00\x00\x00\x00\x00\x00\x00\x00\x00\x00\x00\x00\x00\x00\x00\x00\x00\x00\x00\x00\xf0?\x00\x00\x00\x00\x00\x00\x00\x00\x00\x00\x00\x00\x00\x00\x00\x00\x00\x00\x00\x00\x00\x00\x00\x00\x00\x00\x00\x00\x00\x00\xf0?'
p1949
tp1950
bsg58
g59
sg41
(dp1951
I140205099981904
g1914
ssbsg41
(dp1952
I140205099981968
g1911
ssg58
g59
sbsg74
I2
sg75
g81
sg41
(dp1953
I140205099982096
g0
(g16
g2
Ntp1954
Rp1955
(dp1956
g14
I1
sg20
g0
(g21
g2
Ntp1957
Rp1958
(dp1959
g14
I1
sg25
g26
(g27
(I0
tp1960
g29
tp1961
Rp1962
(I1
(I2
tp1963
g36
I00
S'H\xaf\xbc\x9a\xf2\xd7z>H\xaf\xbc\x9a\xf2\xd7z>'
p1964
tp1965
bsg41
(dp1966
I140205099982096
g1955
ssg43
g26
(g27
(I0
tp1967
g29
tp1968
Rp1969
(I1
(I2
I2
tp1970
g36
I00
S'\x00\x00\x00\x00\x00\x00\x00\x00\x00\x00\x00\x00\x00\x00\x00\x00\x00\x00\x00\x00\x00\x00\xf0?\x00\x00\x00\x00\x00\x00\xf0?'
p1971
tp1972
bsg50
g26
(g27
(I0
tp1973
g29
tp1974
Rp1975
(I1
(I2
I2
tp1976
g36
I00
S'\x00\x00\x00\x00\x00\x00\x00\x00\x00\x00\x00\x00\x00\x00\x00\x00\x00\x00\x00\x00\x00\x00\xf0?\x00\x00\x00\x00\x00\x00\xf0?'
p1977
tp1978
bsg57
I01
sg58
g59
sbsg60
g1911
sg50
Nsg41
(dp1979
sg58
g59
sbssg58
g59
sbssg58
g59
sbsg41
(dp1980
I140205116361744
g70
ssg58
g59
sbsg41
(dp1981
I140205116361872
g259
sI140205116361936
g180
ssg58
g59
sbssVinput_dims
p1982
I2
sVchild
p1983
g0
(g406
g2
Ntp1984
Rp1985
(dp1986
g14
I0
sg83
g26
(g27
(I0
tp1987
g29
tp1988
Rp1989
(I1
(I3
I3
tp1990
g36
I00
S'\x00\x00\x00\x00\x00\x00\xf0?\x00\x00\x00\x00\x00\x00\x00\x00\x00\x00\x00\x00\x00\x00\x00\x00\x00\x00\x00\x00\x00\x00\x00\x00\x00\x00\x00\x00\x00\x00\xf0?\x00\x00\x00\x00\x00\x00\x00\x00\x00\x00\x00\x00\x00\x00\x00\x00\x00\x00\x00\x00\x00\x00\x00\x00\x00\x00\x00\x00\x00\x00\xf0?'
p1991
tp1992
bsg182
g0
(g410
g2
Ntp1993
Rp1994
(dp1995
g14
I1
sg84
Nsg58
g59
sg41
(dp1996
I140205099918160
g1985
ssbsg183
g0
(g410
g2
Ntp1997
Rp1998
(dp1999
g14
I1
sg84
Nsg58
g59
sg41
(dp2000
I140205099918160
g1985
ssbsg84
Nsg58
g59
sg41
(dp2001
I140205116361488
g63
ssbsbsg50
Nsg41
(dp2002
I140205116360976
g12
ssg58
g59
sbsg83
Nsg84
Nsg58
g59
sg41
(dp2003
I140205116361680
g77
ssbsS'_get_patches_for_fill'
p2004
g0
(cmatplotlib.axes._base
_process_plot_var_args
p2005
g2
Ntp2006
Rp2007
(dp2008
Vaxes
p2009
g7
sVcommand
p2010
Vfill
p2011
sbsS'_xcid'
p2012
I1
sS'_label'
p2013
V
p2014
sS'legend_'
p2015
NsS'texts'
p2016
(lp2017
sS'_frameon'
p2018
I01
sS'_autoscaleYon'
p2019
I00
sS'_hold'
p2020
I01
sS'artists'
p2021
(lp2022
g0
(cmatplotlib.patches
Circle
p2023
g2
Ntp2024
Rp2025
(dp2026
g2013
g59
sS'_visible'
p2027
I01
sS'_fill'
p2028
I01
sS'figure'
p2029
g0
(cmatplotlib.figure
Figure
p2030
g2
Ntp2031
Rp2032
(dp2033
g2013
g59
sg2027
I01
sg2029
NsS'stale_callback'
p2034
NsS'_rasterized'
p2035
Nsg2016
(lp2036
sg2020
I01
sg2021
(lp2037
sS'_path_effects'
p2038
(lp2039
sS'frameon'
p2040
I01
sS'_clipon'
p2041
I01
sV__mpl_version__
p2042
S'1.5.1'
p2043
sS'_clippath'
p2044
NsS'_contains'
p2045
NsS'_tight_parameters'
p2046
(dp2047
sS'_mouseover'
p2048
I00
sS'_animated'
p2049
I00
sS'_propobservers'
p2050
(dp2051
sS'eventson'
p2052
I00
sS'_picker'
p2053
NsS'_remove_method'
p2054
NsS'figurePatch'
p2055
g0
(cmatplotlib.patches
Rectangle
p2056
g2
Ntp2057
Rp2058
(dp2059
g2013
g59
sS'_width'
p2060
F1.0
sg2028
I01
sg2029
g2032
sg2027
I01
sg2034
NsS'_agg_filter'
p2061
Nsg2038
g2039
sS'_gid'
p2062
Nsg2041
I01
sS'_combined_transform'
p2063
g0
(g410
g2
Ntp2064
Rp2065
(dp2066
g14
I1
sg84
Nsg58
g59
sg41
(dp2067
sbsS'_edgecolor'
p2068
(F1.0
F1.0
F1.0
F1.0
tp2069
sg2044
Nsg182
F0.0
sg183
F0.0
sS'_sketch'
p2070
Nsg2045
Nsg2035
Nsg2048
I00
sg2049
I00
sg2050
(dp2071
sS'_rect_transform'
p2072
g0
(g410
g2
Ntp2073
Rp2074
(dp2075
g14
I1
sg84
Nsg58
g59
sg41
(dp2076
sbsg2052
I00
sS'_hatch'
p2077
NsS'_stale'
p2078
I01
sS'_linewidth'
p2079
F0.0
sS'clipbox'
p2080
NsS'_height'
p2081
F1.0
sg2053
NsS'_antialiased'
p2082
I00
sS'_original_facecolor'
p2083
V0.75
p2084
sS'_snap'
p2085
NsS'_facecolor'
p2086
(F0.75
F0.75
F0.75
F1.0
tp2087
sS'_joinstyle'
p2088
Vmiter
p2089
sS'_linestyle'
p2090
Vsolid
p2091
sS'_original_edgecolor'
p2092
Vw
p2093
sS'_oid'
p2094
I0
sS'_transformSet'
p2095
I01
sS'_angle'
p2096
F0.0
sS'_alpha'
p2097
Nsg60
g112
sS'_capstyle'
p2098
Vbutt
p2099
sS'_url'
p2100
NsS'_axes'
p2101
Nsg2054
Nsbsg2061
Nsg2080
NsV_restore_to_pylab
p2102
I01
sS'images'
p2103
(lp2104
sS'_suptitle'
p2105
NsS'dpi_scale_trans'
p2106
g141
sS'number'
p2107
I1
sS'callbacks'
p2108
g0
(cmatplotlib.cbook
CallbackRegistry
p2109
g2
Ntp2110
Rp2111
sg2085
NsS'_tight'
p2112
I00
sg2078
I01
sS'bbox'
p2113
g115
sg2070
Nsg2094
I0
sS'patches'
p2114
(lp2115
sS'legends'
p2116
(lp2117
sS'suppressComposite'
p2118
Nsg2095
I00
sg2097
NsS'_axstack'
p2119
g0
(cmatplotlib.figure
AxesStack
p2120
g2
Ntp2121
Rp2122
(dp2123
S'_default'
p2124
NsS'_elements'
p2125
(lp2126
(((g0
(cmatplotlib.gridspec
SubplotSpec
p2127
g2
Ntp2128
Rp2129
(dp2130
S'num1'
p2131
I0
sS'num2'
p2132
I0
sS'_gridspec'
p2133
g0
(cmatplotlib.gridspec
GridSpec
p2134
g2
Ntp2135
Rp2136
(dp2137
S'_nrows'
p2138
I1
sS'right'
p2139
NsS'_col_width_ratios'
p2140
NsS'bottom'
p2141
NsS'top'
p2142
NsS'wspace'
p2143
NsS'_ncols'
p2144
I1
sS'hspace'
p2145
NsS'_row_height_ratios'
p2146
NsS'left'
p2147
Nsbsbtp2148
(ttp2149
(I1
g7
tp2150
tp2151
asS'_ind'
p2152
I1
sS'_pos'
p2153
I0
sbsg60
NsS'lines'
p2154
(lp2155
sS'patch'
p2156
g2058
sS'subplotpars'
p2157
g0
(cmatplotlib.figure
SubplotParams
p2158
g2
Ntp2159
Rp2160
(dp2161
g2139
F0.9
sg2141
F0.1
sg2142
F0.9
sg2143
F0.2
sS'validate'
p2162
I01
sg2145
F0.2
sg2147
F0.125
sbsg2062
Nsg2100
NsS'bbox_inches'
p2163
g118
sS'transFigure'
p2164
g112
sS'_dpi'
p2165
F80.0
sbsg2034
NsS'height'
p2166
I42
sg2061
Nsg2038
g2039
sg2062
Nsg2041
I01
sg2063
g0
(g410
g2
Ntp2167
Rp2168
(dp2169
g14
I1
sg84
Nsg58
g59
sg41
(dp2170
sbsg2068
(F0.0
F0.0
F1.0
F1.0
tp2171
sS'angle'
p2172
F0.0
sg2044
Nsg2070
Nsg2045
Nsg2035
Nsg2048
I00
sS'width'
p2173
I42
sg2049
I00
sg2050
(dp2174
sg2052
I00
sg2077
Nsg2078
I01
sg2079
F1.0
sg2080
g835
sg2053
Nsg2082
I01
sg2083
g29
sg2085
Nsg2086
(F0.0
F0.0
F1.0
F1.0
tp2175
sg2088
g2089
sS'_patch_transform'
p2176
g0
(g410
g2
Ntp2177
Rp2178
(dp2179
g14
I1
sg84
Nsg58
g59
sg41
(dp2180
sbsg2090
g2091
sg2092
g29
sg2094
I0
sS'center'
p2181
(I225
I150
tp2182
sg2095
I01
sg2097
Nsg60
g70
sg2098
g2099
sg2100
Nsg2101
g7
sg2054
NsS'_path'
p2183
g0
(cmatplotlib.path
Path
p2184
g2
Ntp2185
Rp2186
(dp2187
S'_should_simplify'
p2188
I00
sS'_codes'
p2189
g26
(g27
(I0
tp2190
g29
tp2191
Rp2192
(I1
(I26
tp2193
g33
(S'u1'
p2194
I0
I1
tp2195
Rp2196
(I3
S'|'
p2197
NNNI-1
I-1
I0
tp2198
bI00
S'\x01\x04\x04\x04\x04\x04\x04\x04\x04\x04\x04\x04\x04\x04\x04\x04\x04\x04\x04\x04\x04\x04\x04\x04\x04O'
p2199
tp2200
bsS'_vertices'
p2201
g26
(g27
(I0
tp2202
g29
tp2203
Rp2204
(I1
(I26
I2
tp2205
g36
I00
S'\x00\x00\x00\x00\x00\x00\x00\x00\x00\x00\x00\x00\x00\x00\xf0\xbfr\x0fSl\x16\xf9\xd0?\x00\x00\x00\x00\x00\x00\xf0\xbf\x89\xc9\x15\xf7e\xa0\xe0?\x11\xae\xe8\xd5\xd6\xa0\xec\xbf\xcd;\x7ff\x9e\xa0\xe6?\xcd;\x7ff\x9e\xa0\xe6\xbf\x11\xae\xe8\xd5\xd6\xa0\xec?\x89\xc9\x15\xf7e\xa0\xe0\xbf\x00\x00\x00\x00\x00\x00\xf0?r\x0fSl\x16\xf9\xd0\xbf\x00\x00\x00\x00\x00\x00\xf0?\x00\x00\x00\x00\x00\x00\x00\x00\x00\x00\x00\x00\x00\x00\xf0?r\x0fSl\x16\xf9\xd0?\x11\xae\xe8\xd5\xd6\xa0\xec?\x89\xc9\x15\xf7e\xa0\xe0?\xcd;\x7ff\x9e\xa0\xe6?\xcd;\x7ff\x9e\xa0\xe6?\x89\xc9\x15\xf7e\xa0\xe0?\x11\xae\xe8\xd5\xd6\xa0\xec?r\x0fSl\x16\xf9\xd0?\x00\x00\x00\x00\x00\x00\xf0?\x00\x00\x00\x00\x00\x00\x00\x00\x00\x00\x00\x00\x00\x00\xf0?r\x0fSl\x16\xf9\xd0\xbf\x00\x00\x00\x00\x00\x00\xf0?\x89\xc9\x15\xf7e\xa0\xe0\xbf\x11\xae\xe8\xd5\xd6\xa0\xec?\xcd;\x7ff\x9e\xa0\xe6\xbf\xcd;\x7ff\x9e\xa0\xe6?\x11\xae\xe8\xd5\xd6\xa0\xec\xbf\x89\xc9\x15\xf7e\xa0\xe0?\x00\x00\x00\x00\x00\x00\xf0\xbfr\x0fSl\x16\xf9\xd0?\x00\x00\x00\x00\x00\x00\xf0\xbf\x00\x00\x00\x00\x00\x00\x00\x00\x00\x00\x00\x00\x00\x00\xf0\xbfr\x0fSl\x16\xf9\xd0\xbf\x11\xae\xe8\xd5\xd6\xa0\xec\xbf\x89\xc9\x15\xf7e\xa0\xe0\xbf\xcd;\x7ff\x9e\xa0\xe6\xbf\xcd;\x7ff\x9e\xa0\xe6\xbf\x89\xc9\x15\xf7e\xa0\xe0\xbf\x11\xae\xe8\xd5\xd6\xa0\xec\xbfr\x0fSl\x16\xf9\xd0\xbf\x00\x00\x00\x00\x00\x00\xf0\xbf\x00\x00\x00\x00\x00\x00\x00\x00\x00\x00\x00\x00\x00\x00\xf0\xbf\x00\x00\x00\x00\x00\x00\x00\x00\x00\x00\x00\x00\x00\x00\xf0\xbf'
p2206
tp2207
bsS'_readonly'
p2208
I01
sS'_simplify_threshold'
p2209
F0.1111111111111111
sS'_interpolation_steps'
p2210
I1
sS'_has_nonfinite'
p2211
I00
sbsbasg2041
I01
sS'tables'
p2212
(lp2213
sg2114
(lp2214
g0
(cmatplotlib.patches
Ellipse
p2215
g2
Ntp2216
Rp2217
(dp2218
g2013
g59
sg2027
I01
sg2028
I01
sg2029
g2032
sg2034
Nsg2166
I40
sg2061
Nsg2038
g2039
sg2062
Nsg2041
I01
sg2063
g0
(g410
g2
Ntp2219
Rp2220
(dp2221
g14
I1
sg84
Nsg58
g59
sg41
(dp2222
sbsg2068
(F0.0
F0.0
F1.0
F1.0
tp2223
sg2172
F0.0
sg2044
Nsg2070
Nsg2045
Nsg2035
Nsg2048
I00
sg2173
I80
sg2049
I00
sg2050
(dp2224
sg2052
I00
sg2077
Nsg2078
I01
sg2079
F2.0
sg2080
g547
sg2053
Nsg2082
I01
sg2083
g29
sg2085
Nsg2086
(F0.0
F0.0
F1.0
F1.0
tp2225
sg2088
g2089
sg2176
g0
(g139
g2
Ntp2226
Rp2227
(dp2228
g14
I0
sg84
Nsg83
g26
(g27
(I0
tp2229
g29
tp2230
Rp2231
(I1
(I3
I3
tp2232
g36
I00
S'\x00\x00\x00\x00\x00\x00D@\x00\x00\x00\x00\x00\x00\x00\x00\x00\x00\x00\x00\x00\xa0c@\x00\x00\x00\x00\x00\x00\x00\x00\x00\x00\x00\x00\x00\x004@\x00\x00\x00\x00\x00\x00Y@\x00\x00\x00\x00\x00\x00\x00\x00\x00\x00\x00\x00\x00\x00\x00\x00\x00\x00\x00\x00\x00\x00\xf0?'
p2233
tp2234
bsg58
g59
sg41
(dp2235
sbsg2090
g2091
sg2092
g29
sg2094
I0
sg2181
(I157
I100
tp2236
sg2095
I01
sg2097
Nsg60
g70
sg2098
g2099
sg2100
Nsg2101
g7
sg2054
Nsg2183
g2186
sbasS'title'
p2237
g0
(cmatplotlib.text
Text
p2238
g2
Ntp2239
Rp2240
(dp2241
g2013
g59
sg2027
I01
sg2029
g2032
sg2034
NsS'_fontproperties'
p2242
g0
(cmatplotlib.font_manager
FontProperties
p2243
g2
Ntp2244
Rp2245
(dp2246
S'_family'
p2247
(lp2248
Vsans-serif
p2249
asS'_file'
p2250
NsS'_variant'
p2251
Vnormal
p2252
sS'_slant'
p2253
g2252
sS'_size'
p2254
Vlarge
p2255
sS'_weight'
p2256
I400
sS'_stretch'
p2257
g2252
sbsg2061
Nsg2038
g2039
sS'_multialignment'
p2258
Nsg2041
I01
sg2044
Nsg182
F1.0
sg183
F0.5
sg2045
Nsg2035
Nsg2048
I00
sg2049
I00
sg2050
(dp2259
sS'_renderer'
p2260
Nsg2052
I00
sg2101
g7
sg2080
Nsg2100
NsS'_rotation_mode'
p2261
Nsg2053
Nsg2085
Nsg2078
I01
sS'_verticalalignment'
p2262
Vbaseline
p2263
sS'_text'
p2264
V
p2265
sS'_bbox_patch'
p2266
Nsg2070
Nsg2094
I0
sS'_rotation'
p2267
Nsg2095
I01
sg2097
NsS'_linespacing'
p2268
F1.2
sg60
g159
sS'_usetex'
p2269
NsS'_wrap'
p2270
I00
sg2062
NsS'_color'
p2271
Vk
p2272
sS'_horizontalalignment'
p2273
Vcenter
p2274
sg2054
NsbsS'_current_image'
p2275
NsS'mouseover_set'
p2276
c__builtin__
set
p2277
((lp2278
tp2279
Rp2280
sg2035
NsS'_cursorProps'
p2281
(I1
(F0.0
F0.0
F0.0
F1.0
tp2282
tp2283
sS'numRows'
p2284
I1
sS'collections'
p2285
(lp2286
sg2101
g7
sg2050
(dp2287
sg2052
I00
sS'containers'
p2288
(lp2289
sg2049
I00
sg2080
NsS'_get_lines'
p2290
g0
(g2005
g2
Ntp2291
Rp2292
(dp2293
g2009
g7
sg2010
Vplot
p2294
sbsS'_aspect'
p2295
S'equal'
p2296
sS'fmt_xdata'
p2297
Nsg2108
g0
(g2109
g2
Ntp2298
Rp2299
sg2085
NsS'_anchor'
p2300
VC
p2301
sg2078
I01
sg2113
g87
sS'ignore_existing_data_limits'
p2302
I00
sg2070
Nsg2094
I0
sg2095
I00
sS'_left_title'
p2303
g0
(g2238
g2
Ntp2304
Rp2305
(dp2306
g2013
g59
sg2027
I01
sg2029
g2032
sg2034
Nsg2242
g0
(g2243
g2
Ntp2307
Rp2308
(dp2309
g2247
g2248
sg2250
Nsg2251
g2252
sg2253
g2252
sg2254
g2255
sg2256
I400
sg2257
g2252
sbsg2061
Nsg2038
g2039
sg2258
Nsg2041
I01
sg2044
Nsg182
F1.0
sg183
F0.0
sg2045
Nsg2035
Nsg2048
I00
sg2049
I00
sg2050
(dp2310
sg2260
Nsg2052
I00
sg2101
g7
sg2080
Nsg2100
Nsg2261
Nsg2053
Nsg2085
Nsg2078
I01
sg2262
g2263
sg2264
V
p2311
sg2266
Nsg2070
Nsg2094
I0
sg2267
Nsg2095
I01
sg2097
Nsg2268
F1.2
sg60
g163
sg2269
Nsg2270
I00
sg2062
Nsg2271
g2272
sg2273
Vleft
p2312
sg2054
NsbsS'_right_title'
p2313
g0
(g2238
g2
Ntp2314
Rp2315
(dp2316
g2013
g59
sg2027
I01
sg2029
g2032
sg2034
Nsg2242
g0
(g2243
g2
Ntp2317
Rp2318
(dp2319
g2247
g2248
sg2250
Nsg2251
g2252
sg2253
g2252
sg2254
g2255
sg2256
I400
sg2257
g2252
sbsg2061
Nsg2038
g2039
sg2258
Nsg2041
I01
sg2044
Nsg182
F1.0
sg183
F1.0
sg2045
Nsg2035
Nsg2048
I00
sg2049
I00
sg2050
(dp2320
sg2260
Nsg2052
I00
sg2101
g7
sg2080
Nsg2100
Nsg2261
Nsg2053
Nsg2085
Nsg2078
I01
sg2262
g2263
sg2264
V
p2321
sg2266
Nsg2070
Nsg2094
I0
sg2267
Nsg2095
I01
sg2097
Nsg2268
F1.2
sg60
g167
sg2269
Nsg2270
I00
sg2062
Nsg2271
g2272
sg2273
Vright
p2322
sg2054
NsbsS'transScale'
p2323
g63
sg60
NsS'axison'
p2324
I01
sg2156
g0
(g2056
g2
Ntp2325
Rp2326
(dp2327
g2013
g59
sg2060
F1.0
sg2028
I01
sg2029
g2032
sg2027
I01
sg2034
Nsg2061
Nsg2038
g2039
sg2062
Nsg2041
I01
sg2063
g0
(g410
g2
Ntp2328
Rp2329
(dp2330
g14
I1
sg84
Nsg58
g59
sg41
(dp2331
sbsg2068
(F0.0
F0.0
F0.0
F0.0
tp2332
sg2044
Nsg182
F0.0
sg183
F0.0
sg2070
Nsg2045
Nsg2035
Nsg2048
I00
sg2049
I00
sg2050
(dp2333
sg2072
g1634
sg2052
I00
sg2077
Nsg2078
I01
sg2079
F0.0
sg2080
Nsg2081
F1.0
sg2053
Nsg2082
I01
sg2083
g2093
sg2085
Nsg2086
(F1.0
F1.0
F1.0
F1.0
tp2334
sg2088
g2089
sg2090
g2091
sg2092
VNone
p2335
sg2094
I0
sg2095
I01
sg2096
F0.0
sg2097
Nsg60
g81
sg2098
g2099
sg2100
Nsg2101
Nsg2054
NsbsS'viewLim'
p2336
g23
sg2038
g2039
sS'_subplotspec'
p2337
g2129
sS'_adjustable'
p2338
Vbox
p2339
sg2029
g2032
sS'titleOffsetTrans'
p2340
g152
sS'_yaxis_transform'
p2341
g180
sS'_gridOn'
p2342
I00
sg2034
NsS'colNum'
p2343
I0
sg2061
Nsg2103
(lp2344
sS'_autoscaleXon'
p2345
I00
sS'_xmargin'
p2346
F0.0
sS'rowNum'
p2347
I0
sS'_position'
p2348
g90
sS'_rasterization_zorder'
p2349
NsS'_cachedRenderer'
p2350
NsS'_navigate'
p2351
I01
sg2044
NsS'_originalPosition'
p2352
g0
(g21
g2
Ntp2353
Rp2354
(dp2355
g14
I1
sg25
g26
(g27
(I0
tp2356
g29
tp2357
Rp2358
(I1
(I2
tp2359
g36
I00
S'H\xaf\xbc\x9a\xf2\xd7z>H\xaf\xbc\x9a\xf2\xd7z>'
p2360
tp2361
bsg41
(dp2362
sg43
g26
(g27
(I0
tp2363
g29
tp2364
Rp2365
(I1
(I2
I2
tp2366
g36
I00
S'\x00\x00\x00\x00\x00\x00\xc0?\x98\x99\x99\x99\x99\x99\xb9?\xcd\xcc\xcc\xcc\xcc\xcc\xec?\xcd\xcc\xcc\xcc\xcc\xcc\xec?'
p2367
tp2368
bsg50
g26
(g27
(I0
tp2369
g29
tp2370
Rp2371
(I1
(I2
I2
tp2372
g36
I00
S'\x00\x00\x00\x00\x00\x00\xc0?\x98\x99\x99\x99\x99\x99\xb9?\xcd\xcc\xcc\xcc\xcc\xcc\xec?\xcd\xcc\xcc\xcc\xcc\xcc\xec?'
p2373
tp2374
bsg57
I01
sg58
g59
sbsg2045
NsS'_xaxis_transform'
p2375
g259
sg2048
I00
sS'figbox'
p2376
g90
sS'xaxis'
p2377
g0
(cmatplotlib.axis
XAxis
p2378
g2
Ntp2379
Rp2380
(dp2381
g2013
g59
sS'major'
p2382
g0
(cmatplotlib.axis
Ticker
p2383
g2
Ntp2384
Rp2385
(dp2386
S'locator'
p2387
g0
(cmatplotlib.ticker
AutoLocator
p2388
g2
Ntp2389
Rp2390
(dp2391
S'_symmetric'
p2392
I00
sS'_nbins'
p2393
I9
sS'_steps'
p2394
(lp2395
I1
aI2
aI5
aI10
asS'_prune'
p2396
NsS'_integer'
p2397
I00
sS'_trim'
p2398
I01
sS'axis'
p2399
g2380
sbsS'formatter'
p2400
g0
(cmatplotlib.ticker
ScalarFormatter
p2401
g2
Ntp2402
Rp2403
(dp2404
S'_powerlimits'
p2405
(lp2406
I-7
aI7
asS'orderOfMagnitude'
p2407
I0
sS'_useMathText'
p2408
I00
sS'format'
p2409
g59
sS'_useLocale'
p2410
I00
sS'_useOffset'
p2411
I01
sS'offset'
p2412
I0
sg2269
I00
sS'_scientific'
p2413
I01
sg2399
g2380
sbsbsS'isDefault_label'
p2414
I01
sS'_scale'
p2415
g0
(cmatplotlib.scale
LinearScale
p2416
g2
Ntp2417
Rp2418
sg2029
g2032
sg2027
I01
sS'_gridOnMinor'
p2419
I00
sg2034
Nsg2061
NsS'_smart_bounds'
p2420
I00
sg2038
g2039
sg2041
I01
sg2044
NsS'offsetText'
p2421
g0
(g2238
g2
Ntp2422
Rp2423
(dp2424
g2013
g59
sg2027
I01
sg2029
g2032
sg2034
Nsg2242
g0
(g2243
g2
Ntp2425
Rp2426
(dp2427
g2247
(lp2428
g2249
asg2250
Nsg2251
g2252
sg2253
g2252
sg2254
Vmedium
p2429
sg2256
I400
sg2257
g2252
sbsg2061
Nsg2038
g2039
sg2258
Nsg2041
I01
sg2044
Nsg182
I0
sg183
I1
sg2045
Nsg2035
Nsg2048
I00
sg2049
I00
sg2050
(dp2430
sg2260
Nsg2052
I00
sg2101
Nsg2080
Nsg2100
Nsg2261
Nsg2053
Nsg2085
Nsg2078
I01
sg2262
Vtop
p2431
sg2264
V
p2432
sg2266
Nsg2070
Nsg2094
I0
sg2267
Nsg2095
I01
sg2097
Nsg2268
F1.2
sg60
g643
sg2269
Nsg2270
I00
sg2062
Nsg2271
g2272
sg2273
Vright
p2433
sg2054
Nsbsg2045
Nsg2035
NsS'label'
p2434
g0
(g2238
g2
Ntp2435
Rp2436
(dp2437
g2013
g59
sg2027
I01
sg2029
g2032
sg2034
Nsg2242
g0
(g2243
g2
Ntp2438
Rp2439
(dp2440
g2247
(lp2441
g2249
asg2250
Nsg2251
g2252
sg2253
g2252
sg2254
g2429
sg2256
I400
sg2257
g2252
sbsg2061
Nsg2038
g2039
sg2258
Nsg2041
I01
sg2044
Nsg182
I0
sg183
F0.5
sg2045
Nsg2035
Nsg2048
I00
sg2049
I00
sg2050
(dp2442
sg2260
Nsg2052
I00
sg2101
Nsg2080
Nsg2100
Nsg2261
Nsg2053
Nsg2085
Nsg2078
I01
sg2262
Vtop
p2443
sg2264
V
p2444
sg2266
Nsg2070
Nsg2094
I0
sg2267
Nsg2095
I01
sg2097
Nsg2268
F1.2
sg60
g487
sg2269
Nsg2270
I00
sg2062
Nsg2271
g2272
sg2273
Vcenter
p2445
sg2054
Nsbsg2048
I00
sS'isDefault_majfmt'
p2446
I01
sg2049
I00
sg2050
(dp2447
sS'units'
p2448
Nsg2052
I00
sS'minor'
p2449
g0
(g2383
g2
Ntp2450
Rp2451
(dp2452
g2387
g0
(cmatplotlib.ticker
NullLocator
p2453
g2
Ntp2454
Rp2455
(dp2456
g2399
g2380
sbsg2400
g0
(cmatplotlib.ticker
NullFormatter
p2457
g2
Ntp2458
Rp2459
(dp2460
g2399
g2380
sbsbsg2101
g7
sS'_major_tick_kw'
p2461
(dp2462
VgridOn
p2463
I00
ssS'isDefault_minloc'
p2464
I01
sg2080
g1325
sg2053
NsS'_gridOnMajor'
p2465
I00
sS'_lastNumMinorTicks'
p2466
I1
sS'labelpad'
p2467
F5.0
sS'majorTicks'
p2468
(lp2469
g0
(cmatplotlib.axis
XTick
p2470
g2
Ntp2471
Rp2472
(dp2473
g2013
g59
sg2060
F0.5
sg2029
g2032
sS'tick1On'
p2474
I01
sg2027
I01
sg2034
Nsg2094
I0
sg2061
NsS'_pad'
p2475
F4.0
sS'_labelcolor'
p2476
g2272
sS'gridOn'
p2477
I00
sg2254
F4.0
sg2038
g2039
sS'_tickdir'
p2478
Vin
p2479
sg2434
g0
(g2238
g2
Ntp2480
Rp2481
(dp2482
g2013
g59
sg2027
I01
sg2029
g2032
sg2034
Nsg2242
g0
(g2243
g2
Ntp2483
Rp2484
(dp2485
g2247
(lp2486
g2249
asg2250
Nsg2251
g2252
sg2253
g2252
sg2254
g2429
sg2256
I400
sg2257
g2252
sbsg2061
Nsg2038
g2039
sg2258
Nsg2041
I01
sg2044
Nsg182
I0
sg183
I0
sg2045
Nsg2035
Nsg2048
I00
sg2049
I00
sg2050
(dp2487
sg2260
Nsg2052
I00
sg2101
Nsg2080
Nsg2100
Nsg2261
Nsg2053
Nsg2085
Nsg2078
I01
sg2262
Vtop
p2488
sg2264
V
p2489
sg2266
Nsg2070
Nsg2094
I0
sg2267
Nsg2095
I01
sg2097
Nsg2268
F1.2
sg60
g308
sg2269
Nsg2270
I00
sg2062
Nsg2271
g2272
sg2273
Vcenter
p2490
sg2054
Nsbsg2041
I01
sg2044
NsS'label2On'
p2491
I00
sg2045
Nsg2035
NsS'tick2On'
p2492
I01
sg2048
I00
sg2049
I00
sg2050
(dp2493
sS'_tickmarkers'
p2494
(I2
I3
tp2495
sg2052
I00
sS'_zorder'
p2496
F2.01
sg2101
g7
sS'label1On'
p2497
I01
sg2080
g1535
sg2100
NsS'label1'
p2498
g2481
sS'label2'
p2499
g0
(g2238
g2
Ntp2500
Rp2501
(dp2502
g2013
g59
sg2027
I01
sg2029
g2032
sg2034
Nsg2242
g0
(g2243
g2
Ntp2503
Rp2504
(dp2505
g2247
(lp2506
g2249
asg2250
Nsg2251
g2252
sg2253
g2252
sg2254
g2429
sg2256
I400
sg2257
g2252
sbsg2061
Nsg2038
g2039
sg2258
Nsg2041
I01
sg2044
Nsg182
I1
sg183
I0
sg2045
Nsg2035
Nsg2048
I00
sg2049
I00
sg2050
(dp2507
sg2260
Nsg2052
I00
sg2101
Nsg2080
Nsg2100
Nsg2261
Nsg2053
Nsg2085
Nsg2078
I01
sg2262
Vbottom
p2508
sg2264
V
p2509
sg2266
Nsg2070
Nsg2094
I0
sg2267
Nsg2095
I01
sg2097
Nsg2268
F1.2
sg60
g263
sg2269
Nsg2270
I00
sg2062
Nsg2271
g2272
sg2273
Vcenter
p2510
sg2054
Nsbsg2085
NsS'_loc'
p2511
I0
sg2078
I01
sg2070
NsS'_base_pad'
p2512
F4.0
sS'tick1line'
p2513
g0
(cmatplotlib.lines
Line2D
p2514
g2
Ntp2515
Rp2516
(dp2517
g2013
g59
sg2027
I01
sS'_solidcapstyle'
p2518
Vprojecting
p2519
sg2029
g2032
sS'_dashcapstyle'
p2520
Vbutt
p2521
sS'_linestyles'
p2522
Nsg2034
Nsg2061
Nsg2038
g2039
sS'_solidjoinstyle'
p2523
Vround
p2524
sg2041
I01
sS'_x_filled'
p2525
Nsg2044
Nsg182
Nsg183
Nsg2070
Nsg2045
Nsg2035
Nsg2048
I00
sS'_markevery'
p2526
Nsg2049
I00
sg2050
(dp2527
sS'verticalOffset'
p2528
Nsg2052
I00
sS'_subslice'
p2529
I00
sg2101
NsS'_transformed_path'
p2530
NsS'_markeredgewidth'
p2531
F0.5
sS'_markerfacecolor'
p2532
Vauto
p2533
sS'_dashSeq'
p2534
Nsg2271
g2272
sS'_marker'
p2535
g0
(cmatplotlib.markers
MarkerStyle
p2536
g2
Ntp2537
Rp2538
(dp2539
g2535
I2
sS'_alt_path'
p2540
NsS'_snap_threshold'
p2541
F1.0
sg60
g0
(g139
g2
Ntp2542
Rp2543
(dp2544
g14
I2
sg84
Nsg83
g26
(g27
(I0
tp2545
g29
tp2546
Rp2547
(I1
(I3
I3
tp2548
g36
I00
S'\x00\x00\x00\x00\x00\x00\xf0?\x00\x00\x00\x00\x00\x00\x00\x00\x00\x00\x00\x00\x00\x00\x00\x00\x00\x00\x00\x00\x00\x00\x00\x00\x00\x00\x00\x00\x00\x00\xf0?\x00\x00\x00\x00\x00\x00\x00\x00\x00\x00\x00\x00\x00\x00\x00\x00\x00\x00\x00\x00\x00\x00\x00\x00\x00\x00\x00\x00\x00\x00\xf0?'
p2549
tp2550
bsg58
g59
sg41
(dp2551
sbsS'_filled'
p2552
I00
sS'_fillstyle'
p2553
Vfull
p2554
sS'_alt_transform'
p2555
Nsg2098
Vbutt
p2556
sg2088
Vround
p2557
sg2183
g0
(g2184
g2
Ntp2558
Rp2559
(dp2560
g2188
I00
sg2189
Nsg2201
g26
(g27
(I0
tp2561
g29
tp2562
Rp2563
(I1
(I2
I2
tp2564
g36
I00
S'\x00\x00\x00\x00\x00\x00\x00\x80\x00\x00\x00\x00\x00\x00\x00\x00\x00\x00\x00\x00\x00\x00\x00\x80\x00\x00\x00\x00\x00\x00\xf0?'
p2565
tp2566
bsg2208
I00
sg2209
F0.1111111111111111
sg2210
I1
sg2211
I00
sbsbsg2053
NsS'_markerfacecoloralt'
p2567
Vnone
p2568
sg2082
I01
sS'_markeredgecolor'
p2569
Vauto
p2570
sg2085
NsS'_markersize'
p2571
F4.0
sg2078
I01
sS'_xy'
p2572
Nsg2090
VNone
p2573
sS'_xorig'
p2574
(I0
tp2575
sg2094
I0
sS'_drawstyle'
p2576
Vdefault
p2577
sS'ind_offset'
p2578
I0
sS'pickradius'
p2579
I5
sg2095
I01
sg2097
NsS'_dashjoinstyle'
p2580
g2524
sS'_invalidx'
p2581
I01
sg60
g259
sS'_invalidy'
p2582
I01
sS'zorder'
p2583
F2.01
sg2062
Nsg2100
NsS'_yorig'
p2584
(I0
tp2585
sg2080
Nsg2079
F1.0
sg2054
Nsg2183
Nsbsg2095
I00
sS'gridline'
p2586
g0
(g2514
g2
Ntp2587
Rp2588
(dp2589
g2013
g59
sg2027
I01
sg2518
g2519
sg2029
g2032
sg2520
g2521
sg2522
Nsg2034
Nsg2061
Nsg2038
g2039
sg2523
g2524
sg2041
I01
sg2525
Nsg2044
Nsg182
g26
(g27
(I0
tp2590
g29
tp2591
Rp2592
(I1
(I2
tp2593
g36
I00
S'\x00\x00\x00\x00\x00\x00\x00\x00\x00\x00\x00\x00\x00\x00\xf0?'
p2594
tp2595
bsg183
g26
(g27
(I0
tp2596
g29
tp2597
Rp2598
(I1
(I2
tp2599
g36
I00
S'\x00\x00\x00\x00\x00\x00\x00\x00\x00\x00\x00\x00\x00\x00\x00\x00'
p2600
tp2601
bsg2070
Nsg2045
Nsg2035
Nsg2048
I00
sg2526
Nsg2049
I00
sg2050
(dp2602
sg2528
Nsg2052
I00
sg2529
I00
sg2101
Nsg2530
Nsg2531
F0.5
sg2532
g2533
sg2534
Nsg2271
g2272
sg2535
g0
(g2536
g2
Ntp2603
Rp2604
(dp2605
g2535
VNone
p2606
sg2540
Nsg2541
Nsg60
g0
(g410
g2
Ntp2607
Rp2608
(dp2609
g14
I1
sg84
Nsg58
g59
sg41
(dp2610
sbsg2552
I00
sg2553
g2554
sg2555
Nsg2098
g2556
sg2088
g2557
sg2183
g0
(g2184
g2
Ntp2611
Rp2612
(dp2613
g2188
I00
sg2189
Nsg2201
g26
(g27
(I0
tp2614
g29
tp2615
Rp2616
(I1
(I0
I2
tp2617
g36
I00
S''
p2618
tp2619
bsg2208
I00
sg2209
F0.1111111111111111
sg2210
I1
sg2211
I00
sbsbsg2053
Nsg2567
g2568
sg2082
I01
sg2569
g2570
sg2085
Nsg2571
F0.0
sg2078
I01
sg2572
g26
(g27
(I0
tp2620
g29
tp2621
Rp2622
(I1
(I2
I2
tp2623
g36
I00
S'\x00\x00\x00\x00\x00\x00\x00\x00\x00\x00\x00\x00\x00\x00\x00\x00\x00\x00\x00\x00\x00\x00\x00\x00\x00\x00\x00\x00\x00\x00\xf0?'
p2624
tp2625
bsg2090
V:
p2626
sg2574
(F0.0
F0.0
tp2627
sg2094
I0
sg2576
g2577
sg2578
I0
sg2579
I5
sg2095
I01
sg2097
F1.0
sg2580
g2524
sg2581
I00
sg60
g259
sg2582
I00
sg2062
Nsg2100
Nsg2584
(I0
F1.0
tp2628
sg2080
g617
sg2079
F0.5
sg2054
Nsg2183
g0
(g2184
g2
Ntp2629
Rp2630
(dp2631
g2188
I00
sg2189
Nsg2201
g2622
sg2208
I00
sg2209
F0.1111111111111111
sg2210
I180
sg2211
I00
sbsbsg2097
Nsg2053
NsS'tick2line'
p2632
g0
(g2514
g2
Ntp2633
Rp2634
(dp2635
g2013
g59
sg2027
I01
sg2518
g2519
sg2029
g2032
sg2520
g2521
sg2522
Nsg2034
Nsg2061
Nsg2038
g2039
sg2523
g2524
sg2041
I01
sg2525
Nsg2044
Nsg182
Nsg183
Nsg2070
Nsg2045
Nsg2035
Nsg2048
I00
sg2526
Nsg2049
I00
sg2050
(dp2636
sg2528
Nsg2052
I00
sg2529
I00
sg2101
Nsg2530
Nsg2531
F0.5
sg2532
g2533
sg2534
Nsg2271
g2272
sg2535
g0
(g2536
g2
Ntp2637
Rp2638
(dp2639
g2535
I3
sg2540
Nsg2541
F1.0
sg60
g0
(g139
g2
Ntp2640
Rp2641
(dp2642
g14
I2
sg84
Nsg83
g26
(g27
(I0
tp2643
g29
tp2644
Rp2645
(I1
(I3
I3
tp2646
g36
I00
S'\x00\x00\x00\x00\x00\x00\xf0?\x00\x00\x00\x00\x00\x00\x00\x00\x00\x00\x00\x00\x00\x00\x00\x00\x00\x00\x00\x00\x00\x00\x00\x00\x00\x00\x00\x00\x00\x00\xf0\xbf\x00\x00\x00\x00\x00\x00\x00\x00\x00\x00\x00\x00\x00\x00\x00\x00\x00\x00\x00\x00\x00\x00\x00\x00\x00\x00\x00\x00\x00\x00\xf0?'
p2647
tp2648
bsg58
g59
sg41
(dp2649
sbsg2552
I00
sg2553
g2554
sg2555
Nsg2098
g2556
sg2088
g2557
sg2183
g2559
sbsg2053
Nsg2567
g2568
sg2082
I01
sg2569
g2570
sg2085
Nsg2571
F4.0
sg2078
I01
sg2572
Nsg2090
VNone
p2650
sg2574
(I0
tp2651
sg2094
I0
sg2576
g2577
sg2578
I0
sg2579
I5
sg2095
I01
sg2097
Nsg2580
g2524
sg2581
I01
sg60
g259
sg2582
I01
sg2583
F2.01
sg2062
Nsg2100
Nsg2584
(I1
tp2652
sg2080
Nsg2079
F1.0
sg2054
Nsg2183
Nsbsg60
NsS'_labelsize'
p2653
g2429
sS'_name'
p2654
Vxtick
p2655
sg2062
Nsg2271
g2272
sg2054
Nsbag0
(g2470
g2
Ntp2656
Rp2657
(dp2658
g2013
g59
sg2060
F0.5
sg2029
g2032
sg2474
I01
sg2027
I01
sg2034
Nsg2094
I0
sg2061
Nsg2475
F4.0
sg2476
g2272
sg2477
I00
sg2254
F4.0
sg2038
g2039
sg2478
g2479
sg2434
g0
(g2238
g2
Ntp2659
Rp2660
(dp2661
g2013
g59
sg2027
I01
sg2029
g2032
sg2034
Nsg2242
g0
(g2243
g2
Ntp2662
Rp2663
(dp2664
g2247
(lp2665
g2249
asg2250
Nsg2251
g2252
sg2253
g2252
sg2254
g2429
sg2256
I400
sg2257
g2252
sbsg2061
Nsg2038
g2039
sg2258
Nsg2041
I01
sg2044
Nsg182
I0
sg183
I0
sg2045
Nsg2035
Nsg2048
I00
sg2049
I00
sg2050
(dp2666
sg2260
Nsg2052
I00
sg2101
Nsg2080
Nsg2100
Nsg2261
Nsg2053
Nsg2085
Nsg2078
I01
sg2262
g2488
sg2264
V
p2667
sg2266
Nsg2070
Nsg2094
I0
sg2267
Nsg2095
I01
sg2097
Nsg2268
F1.2
sg60
g281
sg2269
Nsg2270
I00
sg2062
Nsg2271
g2272
sg2273
g2490
sg2054
Nsbsg2041
I01
sg2044
Nsg2491
I00
sg2045
Nsg2035
Nsg2492
I01
sg2048
I00
sg2049
I00
sg2050
(dp2668
sg2494
(I2
I3
tp2669
sg2052
I00
sg2496
F2.01
sg2101
g7
sg2497
I01
sg2080
g905
sg2100
Nsg2498
g2660
sg2499
g0
(g2238
g2
Ntp2670
Rp2671
(dp2672
g2013
g59
sg2027
I01
sg2029
g2032
sg2034
Nsg2242
g0
(g2243
g2
Ntp2673
Rp2674
(dp2675
g2247
(lp2676
g2249
asg2250
Nsg2251
g2252
sg2253
g2252
sg2254
g2429
sg2256
I400
sg2257
g2252
sbsg2061
Nsg2038
g2039
sg2258
Nsg2041
I01
sg2044
Nsg182
I1
sg183
I0
sg2045
Nsg2035
Nsg2048
I00
sg2049
I00
sg2050
(dp2677
sg2260
Nsg2052
I00
sg2101
Nsg2080
Nsg2100
Nsg2261
Nsg2053
Nsg2085
Nsg2078
I01
sg2262
g2508
sg2264
V
p2678
sg2266
Nsg2070
Nsg2094
I0
sg2267
Nsg2095
I01
sg2097
Nsg2268
F1.2
sg60
g317
sg2269
Nsg2270
I00
sg2062
Nsg2271
g2272
sg2273
g2510
sg2054
Nsbsg2085
Nsg2511
I0
sg2078
I01
sg2070
Nsg2512
F4.0
sg2513
g0
(g2514
g2
Ntp2679
Rp2680
(dp2681
g2013
g59
sg2027
I01
sg2518
g2519
sg2029
g2032
sg2520
g2521
sg2522
Nsg2034
Nsg2061
Nsg2038
g2039
sg2523
g2524
sg2041
I01
sg2525
Nsg2044
Nsg182
Nsg183
Nsg2070
Nsg2045
Nsg2035
Nsg2048
I00
sg2526
Nsg2049
I00
sg2050
(dp2682
sg2528
Nsg2052
I00
sg2529
I00
sg2101
Nsg2530
Nsg2531
F0.5
sg2532
g2533
sg2534
Nsg2271
g2272
sg2535
g0
(g2536
g2
Ntp2683
Rp2684
(dp2685
g2535
I2
sg2540
Nsg2541
F1.0
sg60
g0
(g139
g2
Ntp2686
Rp2687
(dp2688
g14
I2
sg84
Nsg83
g26
(g27
(I0
tp2689
g29
tp2690
Rp2691
(I1
(I3
I3
tp2692
g36
I00
S'\x00\x00\x00\x00\x00\x00\xf0?\x00\x00\x00\x00\x00\x00\x00\x00\x00\x00\x00\x00\x00\x00\x00\x00\x00\x00\x00\x00\x00\x00\x00\x00\x00\x00\x00\x00\x00\x00\xf0?\x00\x00\x00\x00\x00\x00\x00\x00\x00\x00\x00\x00\x00\x00\x00\x00\x00\x00\x00\x00\x00\x00\x00\x00\x00\x00\x00\x00\x00\x00\xf0?'
p2693
tp2694
bsg58
g59
sg41
(dp2695
sbsg2552
I00
sg2553
g2554
sg2555
Nsg2098
g2556
sg2088
g2557
sg2183
g2559
sbsg2053
Nsg2567
g2568
sg2082
I01
sg2569
g2570
sg2085
Nsg2571
F4.0
sg2078
I01
sg2572
Nsg2090
g2573
sg2574
(I0
tp2696
sg2094
I0
sg2576
g2577
sg2578
I0
sg2579
I5
sg2095
I01
sg2097
Nsg2580
g2524
sg2581
I01
sg60
g259
sg2582
I01
sg2583
F2.01
sg2062
Nsg2100
Nsg2584
g2585
sg2080
Nsg2079
F1.0
sg2054
Nsg2183
Nsbsg2095
I00
sg2586
g0
(g2514
g2
Ntp2697
Rp2698
(dp2699
g2013
g59
sg2027
I01
sg2518
g2519
sg2029
g2032
sg2520
g2521
sg2522
Nsg2034
Nsg2061
Nsg2038
g2039
sg2523
g2524
sg2041
I01
sg2525
Nsg2044
Nsg182
g26
(g27
(I0
tp2700
g29
tp2701
Rp2702
(I1
(I2
tp2703
g36
I00
S'\x00\x00\x00\x00\x00\x00\x00\x00\x00\x00\x00\x00\x00\x00\xf0?'
p2704
tp2705
bsg183
g26
(g27
(I0
tp2706
g29
tp2707
Rp2708
(I1
(I2
tp2709
g36
I00
S'\x00\x00\x00\x00\x00\x00\x00\x00\x00\x00\x00\x00\x00\x00\x00\x00'
p2710
tp2711
bsg2070
Nsg2045
Nsg2035
Nsg2048
I00
sg2526
Nsg2049
I00
sg2050
(dp2712
sg2528
Nsg2052
I00
sg2529
I00
sg2101
Nsg2530
Nsg2531
F0.5
sg2532
g2533
sg2534
Nsg2271
g2272
sg2535
g0
(g2536
g2
Ntp2713
Rp2714
(dp2715
g2535
g2606
sg2540
Nsg2541
Nsg60
g0
(g410
g2
Ntp2716
Rp2717
(dp2718
g14
I1
sg84
Nsg58
g59
sg41
(dp2719
sbsg2552
I00
sg2553
g2554
sg2555
Nsg2098
g2556
sg2088
g2557
sg2183
g0
(g2184
g2
Ntp2720
Rp2721
(dp2722
g2188
I00
sg2189
Nsg2201
g26
(g27
(I0
tp2723
g29
tp2724
Rp2725
(I1
(I0
I2
tp2726
g36
I00
g2618
tp2727
bsg2208
I00
sg2209
F0.1111111111111111
sg2210
I1
sg2211
I00
sbsbsg2053
Nsg2567
g2568
sg2082
I01
sg2569
g2570
sg2085
Nsg2571
F0.0
sg2078
I01
sg2572
g26
(g27
(I0
tp2728
g29
tp2729
Rp2730
(I1
(I2
I2
tp2731
g36
I00
S'\x00\x00\x00\x00\x00\x00\x00\x00\x00\x00\x00\x00\x00\x00\x00\x00\x00\x00\x00\x00\x00\x00\x00\x00\x00\x00\x00\x00\x00\x00\xf0?'
p2732
tp2733
bsg2090
g2626
sg2574
g2627
sg2094
I0
sg2576
g2577
sg2578
I0
sg2579
I5
sg2095
I01
sg2097
F1.0
sg2580
g2524
sg2581
I00
sg60
g259
sg2582
I00
sg2062
Nsg2100
Nsg2584
g2628
sg2080
g1115
sg2079
F0.5
sg2054
Nsg2183
g0
(g2184
g2
Ntp2734
Rp2735
(dp2736
g2188
I00
sg2189
Nsg2201
g2730
sg2208
I00
sg2209
F0.1111111111111111
sg2210
I180
sg2211
I00
sbsbsg2097
Nsg2053
Nsg2632
g0
(g2514
g2
Ntp2737
Rp2738
(dp2739
g2013
g59
sg2027
I01
sg2518
g2519
sg2029
g2032
sg2520
g2521
sg2522
Nsg2034
Nsg2061
Nsg2038
g2039
sg2523
g2524
sg2041
I01
sg2525
Nsg2044
Nsg182
Nsg183
Nsg2070
Nsg2045
Nsg2035
Nsg2048
I00
sg2526
Nsg2049
I00
sg2050
(dp2740
sg2528
Nsg2052
I00
sg2529
I00
sg2101
Nsg2530
Nsg2531
F0.5
sg2532
g2533
sg2534
Nsg2271
g2272
sg2535
g0
(g2536
g2
Ntp2741
Rp2742
(dp2743
g2535
I3
sg2540
Nsg2541
F1.0
sg60
g0
(g139
g2
Ntp2744
Rp2745
(dp2746
g14
I2
sg84
Nsg83
g26
(g27
(I0
tp2747
g29
tp2748
Rp2749
(I1
(I3
I3
tp2750
g36
I00
S'\x00\x00\x00\x00\x00\x00\xf0?\x00\x00\x00\x00\x00\x00\x00\x00\x00\x00\x00\x00\x00\x00\x00\x00\x00\x00\x00\x00\x00\x00\x00\x00\x00\x00\x00\x00\x00\x00\xf0\xbf\x00\x00\x00\x00\x00\x00\x00\x00\x00\x00\x00\x00\x00\x00\x00\x00\x00\x00\x00\x00\x00\x00\x00\x00\x00\x00\x00\x00\x00\x00\xf0?'
p2751
tp2752
bsg58
g59
sg41
(dp2753
sbsg2552
I00
sg2553
g2554
sg2555
Nsg2098
g2556
sg2088
g2557
sg2183
g2559
sbsg2053
Nsg2567
g2568
sg2082
I01
sg2569
g2570
sg2085
Nsg2571
F4.0
sg2078
I01
sg2572
Nsg2090
g2650
sg2574
(I0
tp2754
sg2094
I0
sg2576
g2577
sg2578
I0
sg2579
I5
sg2095
I01
sg2097
Nsg2580
g2524
sg2581
I01
sg60
g259
sg2582
I01
sg2583
F2.01
sg2062
Nsg2100
Nsg2584
g2652
sg2080
Nsg2079
F1.0
sg2054
Nsg2183
Nsbsg60
Nsg2653
g2429
sg2654
g2655
sg2062
Nsg2271
g2272
sg2054
NsbasS'isDefault_majloc'
p2755
I01
sg2108
g0
(g2109
g2
Ntp2756
Rp2757
sg2085
Nsg2078
I01
sS'_autolabelpos'
p2758
I01
sg2070
Nsg2094
I0
sS'_lastNumMajorTicks'
p2759
I1
sS'converter'
p2760
Nsg2095
I00
sg2097
NsS'offset_text_position'
p2761
Vbottom
p2762
sg60
NsS'label_position'
p2763
Vbottom
p2764
sg2062
Nsg2100
Nsg2579
I15
sS'minorTicks'
p2765
(lp2766
g0
(g2470
g2
Ntp2767
Rp2768
(dp2769
g2013
g59
sg2060
F0.5
sg2029
g2032
sg2474
I01
sg2027
I01
sg2034
Nsg2094
I0
sg2061
Nsg2475
F4.0
sg2476
g2272
sg2477
I00
sg2254
F2.0
sg2038
g2039
sg2478
g2479
sg2434
g0
(g2238
g2
Ntp2770
Rp2771
(dp2772
g2013
g59
sg2027
I01
sg2029
g2032
sg2034
Nsg2242
g0
(g2243
g2
Ntp2773
Rp2774
(dp2775
g2247
(lp2776
g2249
asg2250
Nsg2251
g2252
sg2253
g2252
sg2254
g2429
sg2256
I400
sg2257
g2252
sbsg2061
Nsg2038
g2039
sg2258
Nsg2041
I01
sg2044
Nsg182
I0
sg183
I0
sg2045
Nsg2035
Nsg2048
I00
sg2049
I00
sg2050
(dp2777
sg2260
Nsg2052
I00
sg2101
Nsg2080
Nsg2100
Nsg2261
Nsg2053
Nsg2085
Nsg2078
I01
sg2262
g2488
sg2264
V
p2778
sg2266
Nsg2070
Nsg2094
I0
sg2267
Nsg2095
I01
sg2097
Nsg2268
F1.2
sg60
g272
sg2269
Nsg2270
I00
sg2062
Nsg2271
g2272
sg2273
g2490
sg2054
Nsbsg2041
I01
sg2044
Nsg2491
I00
sg2045
Nsg2035
Nsg2492
I01
sg2048
I00
sg2049
I00
sg2050
(dp2779
sg2494
(I2
I3
tp2780
sg2052
I00
sg2496
I2
sg2101
g7
sg2497
I01
sg2080
g1045
sg2100
Nsg2498
g2771
sg2499
g0
(g2238
g2
Ntp2781
Rp2782
(dp2783
g2013
g59
sg2027
I01
sg2029
g2032
sg2034
Nsg2242
g0
(g2243
g2
Ntp2784
Rp2785
(dp2786
g2247
(lp2787
g2249
asg2250
Nsg2251
g2252
sg2253
g2252
sg2254
g2429
sg2256
I400
sg2257
g2252
sbsg2061
Nsg2038
g2039
sg2258
Nsg2041
I01
sg2044
Nsg182
I1
sg183
I0
sg2045
Nsg2035
Nsg2048
I00
sg2049
I00
sg2050
(dp2788
sg2260
Nsg2052
I00
sg2101
Nsg2080
Nsg2100
Nsg2261
Nsg2053
Nsg2085
Nsg2078
I01
sg2262
g2508
sg2264
V
p2789
sg2266
Nsg2070
Nsg2094
I0
sg2267
Nsg2095
I01
sg2097
Nsg2268
F1.2
sg60
g256
sg2269
Nsg2270
I00
sg2062
Nsg2271
g2272
sg2273
g2510
sg2054
Nsbsg2085
Nsg2511
I0
sg2078
I01
sg2070
Nsg2512
F4.0
sg2513
g0
(g2514
g2
Ntp2790
Rp2791
(dp2792
g2013
g59
sg2027
I01
sg2518
g2519
sg2029
g2032
sg2520
g2521
sg2522
Nsg2034
Nsg2061
Nsg2038
g2039
sg2523
g2524
sg2041
I01
sg2525
Nsg2044
Nsg182
Nsg183
Nsg2070
Nsg2045
Nsg2035
Nsg2048
I00
sg2526
Nsg2049
I00
sg2050
(dp2793
sg2528
Nsg2052
I00
sg2529
I00
sg2101
Nsg2530
Nsg2531
F0.5
sg2532
g2533
sg2534
Nsg2271
g2272
sg2535
g0
(g2536
g2
Ntp2794
Rp2795
(dp2796
g2535
I2
sg2540
Nsg2541
F1.0
sg60
g0
(g139
g2
Ntp2797
Rp2798
(dp2799
g14
I2
sg84
Nsg83
g26
(g27
(I0
tp2800
g29
tp2801
Rp2802
(I1
(I3
I3
tp2803
g36
I00
S'\x00\x00\x00\x00\x00\x00\xf0?\x00\x00\x00\x00\x00\x00\x00\x00\x00\x00\x00\x00\x00\x00\x00\x00\x00\x00\x00\x00\x00\x00\x00\x00\x00\x00\x00\x00\x00\x00\xf0?\x00\x00\x00\x00\x00\x00\x00\x00\x00\x00\x00\x00\x00\x00\x00\x00\x00\x00\x00\x00\x00\x00\x00\x00\x00\x00\x00\x00\x00\x00\xf0?'
p2804
tp2805
bsg58
g59
sg41
(dp2806
sbsg2552
I00
sg2553
g2554
sg2555
Nsg2098
g2556
sg2088
g2557
sg2183
g2559
sbsg2053
Nsg2567
g2568
sg2082
I01
sg2569
g2570
sg2085
Nsg2571
F2.0
sg2078
I01
sg2572
Nsg2090
g2573
sg2574
(I0
tp2807
sg2094
I0
sg2576
g2577
sg2578
I0
sg2579
I5
sg2095
I01
sg2097
Nsg2580
g2524
sg2581
I01
sg60
g259
sg2582
I01
sg2583
I2
sg2062
Nsg2100
Nsg2584
g2585
sg2080
Nsg2079
F1.0
sg2054
Nsg2183
Nsbsg2095
I00
sg2586
g0
(g2514
g2
Ntp2808
Rp2809
(dp2810
g2013
g59
sg2027
I01
sg2518
g2519
sg2029
g2032
sg2520
g2521
sg2522
Nsg2034
Nsg2061
Nsg2038
g2039
sg2523
g2524
sg2041
I01
sg2525
Nsg2044
Nsg182
g26
(g27
(I0
tp2811
g29
tp2812
Rp2813
(I1
(I2
tp2814
g36
I00
S'\x00\x00\x00\x00\x00\x00\x00\x00\x00\x00\x00\x00\x00\x00\xf0?'
p2815
tp2816
bsg183
g26
(g27
(I0
tp2817
g29
tp2818
Rp2819
(I1
(I2
tp2820
g36
I00
S'\x00\x00\x00\x00\x00\x00\x00\x00\x00\x00\x00\x00\x00\x00\x00\x00'
p2821
tp2822
bsg2070
Nsg2045
Nsg2035
Nsg2048
I00
sg2526
Nsg2049
I00
sg2050
(dp2823
sg2528
Nsg2052
I00
sg2529
I00
sg2101
Nsg2530
Nsg2531
F0.5
sg2532
g2533
sg2534
Nsg2271
g2272
sg2535
g0
(g2536
g2
Ntp2824
Rp2825
(dp2826
g2535
g2606
sg2540
Nsg2541
Nsg60
g0
(g410
g2
Ntp2827
Rp2828
(dp2829
g14
I1
sg84
Nsg58
g59
sg41
(dp2830
sbsg2552
I00
sg2553
g2554
sg2555
Nsg2098
g2556
sg2088
g2557
sg2183
g0
(g2184
g2
Ntp2831
Rp2832
(dp2833
g2188
I00
sg2189
Nsg2201
g26
(g27
(I0
tp2834
g29
tp2835
Rp2836
(I1
(I0
I2
tp2837
g36
I00
g2618
tp2838
bsg2208
I00
sg2209
F0.1111111111111111
sg2210
I1
sg2211
I00
sbsbsg2053
Nsg2567
g2568
sg2082
I01
sg2569
g2570
sg2085
Nsg2571
F0.0
sg2078
I01
sg2572
g26
(g27
(I0
tp2839
g29
tp2840
Rp2841
(I1
(I2
I2
tp2842
g36
I00
S'\x00\x00\x00\x00\x00\x00\x00\x00\x00\x00\x00\x00\x00\x00\x00\x00\x00\x00\x00\x00\x00\x00\x00\x00\x00\x00\x00\x00\x00\x00\xf0?'
p2843
tp2844
bsg2090
g2626
sg2574
g2627
sg2094
I0
sg2576
g2577
sg2578
I0
sg2579
I5
sg2095
I01
sg2097
F1.0
sg2580
g2524
sg2581
I00
sg60
g259
sg2582
I00
sg2062
Nsg2100
Nsg2584
g2628
sg2080
g461
sg2079
F0.5
sg2054
Nsg2183
g0
(g2184
g2
Ntp2845
Rp2846
(dp2847
g2188
I00
sg2189
Nsg2201
g2841
sg2208
I00
sg2209
F0.1111111111111111
sg2210
I180
sg2211
I00
sbsbsg2097
Nsg2053
Nsg2632
g0
(g2514
g2
Ntp2848
Rp2849
(dp2850
g2013
g59
sg2027
I01
sg2518
g2519
sg2029
g2032
sg2520
g2521
sg2522
Nsg2034
Nsg2061
Nsg2038
g2039
sg2523
g2524
sg2041
I01
sg2525
Nsg2044
Nsg182
Nsg183
Nsg2070
Nsg2045
Nsg2035
Nsg2048
I00
sg2526
Nsg2049
I00
sg2050
(dp2851
sg2528
Nsg2052
I00
sg2529
I00
sg2101
Nsg2530
Nsg2531
F0.5
sg2532
g2533
sg2534
Nsg2271
g2272
sg2535
g0
(g2536
g2
Ntp2852
Rp2853
(dp2854
g2535
I3
sg2540
Nsg2541
F1.0
sg60
g0
(g139
g2
Ntp2855
Rp2856
(dp2857
g14
I2
sg84
Nsg83
g26
(g27
(I0
tp2858
g29
tp2859
Rp2860
(I1
(I3
I3
tp2861
g36
I00
S'\x00\x00\x00\x00\x00\x00\xf0?\x00\x00\x00\x00\x00\x00\x00\x00\x00\x00\x00\x00\x00\x00\x00\x00\x00\x00\x00\x00\x00\x00\x00\x00\x00\x00\x00\x00\x00\x00\xf0\xbf\x00\x00\x00\x00\x00\x00\x00\x00\x00\x00\x00\x00\x00\x00\x00\x00\x00\x00\x00\x00\x00\x00\x00\x00\x00\x00\x00\x00\x00\x00\xf0?'
p2862
tp2863
bsg58
g59
sg41
(dp2864
sbsg2552
I00
sg2553
g2554
sg2555
Nsg2098
g2556
sg2088
g2557
sg2183
g2559
sbsg2053
Nsg2567
g2568
sg2082
I01
sg2569
g2570
sg2085
Nsg2571
F2.0
sg2078
I01
sg2572
Nsg2090
g2650
sg2574
(I0
tp2865
sg2094
I0
sg2576
g2577
sg2578
I0
sg2579
I5
sg2095
I01
sg2097
Nsg2580
g2524
sg2581
I01
sg60
g259
sg2582
I01
sg2583
I2
sg2062
Nsg2100
Nsg2584
g2652
sg2080
Nsg2079
F1.0
sg2054
Nsg2183
Nsbsg60
Nsg2653
g2429
sg2654
g2655
sg2062
Nsg2271
g2272
sg2054
Nsbag0
(g2470
g2
Ntp2866
Rp2867
(dp2868
g2013
g59
sg2060
F0.5
sg2029
g2032
sg2474
I01
sg2027
I01
sg2034
Nsg2094
I0
sg2061
Nsg2475
F4.0
sg2476
g2272
sg2477
I00
sg2254
F2.0
sg2038
g2039
sg2478
g2479
sg2434
g0
(g2238
g2
Ntp2869
Rp2870
(dp2871
g2013
g59
sg2027
I01
sg2029
g2032
sg2034
Nsg2242
g0
(g2243
g2
Ntp2872
Rp2873
(dp2874
g2247
(lp2875
g2249
asg2250
Nsg2251
g2252
sg2253
g2252
sg2254
g2429
sg2256
I400
sg2257
g2252
sbsg2061
Nsg2038
g2039
sg2258
Nsg2041
I01
sg2044
Nsg182
I0
sg183
I0
sg2045
Nsg2035
Nsg2048
I00
sg2049
I00
sg2050
(dp2876
sg2260
Nsg2052
I00
sg2101
Nsg2080
Nsg2100
Nsg2261
Nsg2053
Nsg2085
Nsg2078
I01
sg2262
g2488
sg2264
V
p2877
sg2266
Nsg2070
Nsg2094
I0
sg2267
Nsg2095
I01
sg2097
Nsg2268
F1.2
sg60
g290
sg2269
Nsg2270
I00
sg2062
Nsg2271
g2272
sg2273
g2490
sg2054
Nsbsg2041
I01
sg2044
Nsg2491
I00
sg2045
Nsg2035
Nsg2492
I01
sg2048
I00
sg2049
I00
sg2050
(dp2878
sg2494
(I2
I3
tp2879
sg2052
I00
sg2496
I2
sg2101
g7
sg2497
I01
sg2080
g695
sg2100
Nsg2498
g2870
sg2499
g0
(g2238
g2
Ntp2880
Rp2881
(dp2882
g2013
g59
sg2027
I01
sg2029
g2032
sg2034
Nsg2242
g0
(g2243
g2
Ntp2883
Rp2884
(dp2885
g2247
(lp2886
g2249
asg2250
Nsg2251
g2252
sg2253
g2252
sg2254
g2429
sg2256
I400
sg2257
g2252
sbsg2061
Nsg2038
g2039
sg2258
Nsg2041
I01
sg2044
Nsg182
I1
sg183
I0
sg2045
Nsg2035
Nsg2048
I00
sg2049
I00
sg2050
(dp2887
sg2260
Nsg2052
I00
sg2101
Nsg2080
Nsg2100
Nsg2261
Nsg2053
Nsg2085
Nsg2078
I01
sg2262
g2508
sg2264
V
p2888
sg2266
Nsg2070
Nsg2094
I0
sg2267
Nsg2095
I01
sg2097
Nsg2268
F1.2
sg60
g299
sg2269
Nsg2270
I00
sg2062
Nsg2271
g2272
sg2273
g2510
sg2054
Nsbsg2085
Nsg2511
I0
sg2078
I01
sg2070
Nsg2512
F4.0
sg2513
g0
(g2514
g2
Ntp2889
Rp2890
(dp2891
g2013
g59
sg2027
I01
sg2518
g2519
sg2029
g2032
sg2520
g2521
sg2522
Nsg2034
Nsg2061
Nsg2038
g2039
sg2523
g2524
sg2041
I01
sg2525
Nsg2044
Nsg182
Nsg183
Nsg2070
Nsg2045
Nsg2035
Nsg2048
I00
sg2526
Nsg2049
I00
sg2050
(dp2892
sg2528
Nsg2052
I00
sg2529
I00
sg2101
Nsg2530
Nsg2531
F0.5
sg2532
g2533
sg2534
Nsg2271
g2272
sg2535
g0
(g2536
g2
Ntp2893
Rp2894
(dp2895
g2535
I2
sg2540
Nsg2541
F1.0
sg60
g0
(g139
g2
Ntp2896
Rp2897
(dp2898
g14
I2
sg84
Nsg83
g26
(g27
(I0
tp2899
g29
tp2900
Rp2901
(I1
(I3
I3
tp2902
g36
I00
S'\x00\x00\x00\x00\x00\x00\xf0?\x00\x00\x00\x00\x00\x00\x00\x00\x00\x00\x00\x00\x00\x00\x00\x00\x00\x00\x00\x00\x00\x00\x00\x00\x00\x00\x00\x00\x00\x00\xf0?\x00\x00\x00\x00\x00\x00\x00\x00\x00\x00\x00\x00\x00\x00\x00\x00\x00\x00\x00\x00\x00\x00\x00\x00\x00\x00\x00\x00\x00\x00\xf0?'
p2903
tp2904
bsg58
g59
sg41
(dp2905
sbsg2552
I00
sg2553
g2554
sg2555
Nsg2098
g2556
sg2088
g2557
sg2183
g2559
sbsg2053
Nsg2567
g2568
sg2082
I01
sg2569
g2570
sg2085
Nsg2571
F2.0
sg2078
I01
sg2572
Nsg2090
g2573
sg2574
(I0
tp2906
sg2094
I0
sg2576
g2577
sg2578
I0
sg2579
I5
sg2095
I01
sg2097
Nsg2580
g2524
sg2581
I01
sg60
g259
sg2582
I01
sg2583
I2
sg2062
Nsg2100
Nsg2584
g2585
sg2080
Nsg2079
F1.0
sg2054
Nsg2183
Nsbsg2095
I00
sg2586
g0
(g2514
g2
Ntp2907
Rp2908
(dp2909
g2013
g59
sg2027
I01
sg2518
g2519
sg2029
g2032
sg2520
g2521
sg2522
Nsg2034
Nsg2061
Nsg2038
g2039
sg2523
g2524
sg2041
I01
sg2525
Nsg2044
Nsg182
g26
(g27
(I0
tp2910
g29
tp2911
Rp2912
(I1
(I2
tp2913
g36
I00
S'\x00\x00\x00\x00\x00\x00\x00\x00\x00\x00\x00\x00\x00\x00\xf0?'
p2914
tp2915
bsg183
g26
(g27
(I0
tp2916
g29
tp2917
Rp2918
(I1
(I2
tp2919
g36
I00
S'\x00\x00\x00\x00\x00\x00\x00\x00\x00\x00\x00\x00\x00\x00\x00\x00'
p2920
tp2921
bsg2070
Nsg2045
Nsg2035
Nsg2048
I00
sg2526
Nsg2049
I00
sg2050
(dp2922
sg2528
Nsg2052
I00
sg2529
I00
sg2101
Nsg2530
Nsg2531
F0.5
sg2532
g2533
sg2534
Nsg2271
g2272
sg2535
g0
(g2536
g2
Ntp2923
Rp2924
(dp2925
g2535
g2606
sg2540
Nsg2541
Nsg60
g0
(g410
g2
Ntp2926
Rp2927
(dp2928
g14
I1
sg84
Nsg58
g59
sg41
(dp2929
sbsg2552
I00
sg2553
g2554
sg2555
Nsg2098
g2556
sg2088
g2557
sg2183
g0
(g2184
g2
Ntp2930
Rp2931
(dp2932
g2188
I00
sg2189
Nsg2201
g26
(g27
(I0
tp2933
g29
tp2934
Rp2935
(I1
(I0
I2
tp2936
g36
I00
g2618
tp2937
bsg2208
I00
sg2209
F0.1111111111111111
sg2210
I1
sg2211
I00
sbsbsg2053
Nsg2567
g2568
sg2082
I01
sg2569
g2570
sg2085
Nsg2571
F0.0
sg2078
I01
sg2572
g26
(g27
(I0
tp2938
g29
tp2939
Rp2940
(I1
(I2
I2
tp2941
g36
I00
S'\x00\x00\x00\x00\x00\x00\x00\x00\x00\x00\x00\x00\x00\x00\x00\x00\x00\x00\x00\x00\x00\x00\x00\x00\x00\x00\x00\x00\x00\x00\xf0?'
p2942
tp2943
bsg2090
g2626
sg2574
g2627
sg2094
I0
sg2576
g2577
sg2578
I0
sg2579
I5
sg2095
I01
sg2097
F1.0
sg2580
g2524
sg2581
I00
sg60
g259
sg2582
I00
sg2062
Nsg2100
Nsg2584
g2628
sg2080
g1955
sg2079
F0.5
sg2054
Nsg2183
g0
(g2184
g2
Ntp2944
Rp2945
(dp2946
g2188
I00
sg2189
Nsg2201
g2940
sg2208
I00
sg2209
F0.1111111111111111
sg2210
I180
sg2211
I00
sbsbsg2097
Nsg2053
Nsg2632
g0
(g2514
g2
Ntp2947
Rp2948
(dp2949
g2013
g59
sg2027
I01
sg2518
g2519
sg2029
g2032
sg2520
g2521
sg2522
Nsg2034
Nsg2061
Nsg2038
g2039
sg2523
g2524
sg2041
I01
sg2525
Nsg2044
Nsg182
Nsg183
Nsg2070
Nsg2045
Nsg2035
Nsg2048
I00
sg2526
Nsg2049
I00
sg2050
(dp2950
sg2528
Nsg2052
I00
sg2529
I00
sg2101
Nsg2530
Nsg2531
F0.5
sg2532
g2533
sg2534
Nsg2271
g2272
sg2535
g0
(g2536
g2
Ntp2951
Rp2952
(dp2953
g2535
I3
sg2540
Nsg2541
F1.0
sg60
g0
(g139
g2
Ntp2954
Rp2955
(dp2956
g14
I2
sg84
Nsg83
g26
(g27
(I0
tp2957
g29
tp2958
Rp2959
(I1
(I3
I3
tp2960
g36
I00
S'\x00\x00\x00\x00\x00\x00\xf0?\x00\x00\x00\x00\x00\x00\x00\x00\x00\x00\x00\x00\x00\x00\x00\x00\x00\x00\x00\x00\x00\x00\x00\x00\x00\x00\x00\x00\x00\x00\xf0\xbf\x00\x00\x00\x00\x00\x00\x00\x00\x00\x00\x00\x00\x00\x00\x00\x00\x00\x00\x00\x00\x00\x00\x00\x00\x00\x00\x00\x00\x00\x00\xf0?'
p2961
tp2962
bsg58
g59
sg41
(dp2963
sbsg2552
I00
sg2553
g2554
sg2555
Nsg2098
g2556
sg2088
g2557
sg2183
g2559
sbsg2053
Nsg2567
g2568
sg2082
I01
sg2569
g2570
sg2085
Nsg2571
F2.0
sg2078
I01
sg2572
Nsg2090
g2650
sg2574
(I0
tp2964
sg2094
I0
sg2576
g2577
sg2578
I0
sg2579
I5
sg2095
I01
sg2097
Nsg2580
g2524
sg2581
I01
sg60
g259
sg2582
I01
sg2583
I2
sg2062
Nsg2100
Nsg2584
g2652
sg2080
Nsg2079
F1.0
sg2054
Nsg2183
Nsbsg60
Nsg2653
g2429
sg2654
g2655
sg2062
Nsg2271
g2272
sg2054
Nsbasg2054
NsS'_minor_tick_kw'
p2965
(dp2966
sS'isDefault_minfmt'
p2967
I01
sbsS'_navigate_mode'
p2968
Nsg2054
NsS'transAxes'
p2969
g81
sS'_connected'
p2970
(dp2971
sS'fmt_ydata'
p2972
NsS'dataLim'
p2973
g0
(g21
g2
Ntp2974
Rp2975
(dp2976
g14
I2
sg25
g26
(g27
(I0
tp2977
g29
tp2978
Rp2979
(I1
(I2
tp2980
g36
I00
S'\x00\x00\x00\x00\x00\x004@\x00\x00\x00\x00\x00\x00$@'
p2981
tp2982
bsg41
(dp2983
sg43
g26
(g27
(I0
tp2984
g29
tp2985
Rp2986
(I1
(I2
I2
tp2987
g36
I00
S'\x00\x00\x00\x00\x00\x00\xf0\x7f\x00\x00\x00\x00\x00\x00\xf0\x7f\x00\x00\x00\x00\x00\x00\xf0\xff\x00\x00\x00\x00\x00\x00\xf0\xff'
p2988
tp2989
bsg50
g26
(g27
(I0
tp2990
g29
tp2991
Rp2992
(I1
(I2
I2
tp2993
g36
I00
S'\x00\x00\x00\x00\x00\x004@\x00\x00\x00\x00\x00\x00$@\x00\x00\x00\x00\x00@o@\x00\x00\x00\x00\x00 g@'
p2994
tp2995
bsg57
I01
sg58
g59
sbsS'transData'
p2996
g70
sg2053
NsS'_sharey'
p2997
NsS'_sharex'
p2998
NsS'axesPatch'
p2999
g2326
sS'_ymargin'
p3000
F0.0
sS'_axes_locator'
p3001
NsS'numCols'
p3002
I1
sg2097
Nsg2112
I00
sS'yaxis'
p3003
g0
(cmatplotlib.axis
YAxis
p3004
g2
Ntp3005
Rp3006
(dp3007
g2013
g59
sg2382
g0
(g2383
g2
Ntp3008
Rp3009
(dp3010
g2387
g0
(g2388
g2
Ntp3011
Rp3012
(dp3013
g2392
I00
sg2393
I9
sg2394
(lp3014
I1
aI2
aI5
aI10
asg2396
Nsg2397
I00
sg2398
I01
sg2399
g3006
sbsg2400
g0
(g2401
g2
Ntp3015
Rp3016
(dp3017
g2405
g2406
sg2407
I0
sg2408
I00
sg2409
g59
sg2410
I00
sg2411
I01
sg2412
I0
sg2269
I00
sg2413
I01
sg2399
g3006
sbsbsg2414
I01
sg2415
g0
(g2416
g2
Ntp3018
Rp3019
sg2029
g2032
sg2027
I01
sg2419
I00
sg2034
Nsg2061
Nsg2420
I00
sg2038
g2039
sg2041
I01
sg2044
Nsg2421
g0
(g2238
g2
Ntp3020
Rp3021
(dp3022
g2013
g59
sg2027
I01
sg2029
g2032
sg2034
Nsg2242
g0
(g2243
g2
Ntp3023
Rp3024
(dp3025
g2247
(lp3026
g2249
asg2250
Nsg2251
g2252
sg2253
g2252
sg2254
g2429
sg2256
I400
sg2257
g2252
sbsg2061
Nsg2038
g2039
sg2258
Nsg2041
I01
sg2044
Nsg182
F0.5
sg183
I0
sg2045
Nsg2035
Nsg2048
I00
sg2049
I00
sg2050
(dp3027
sg2260
Nsg2052
I00
sg2101
Nsg2080
Nsg2100
Nsg2261
Nsg2053
Nsg2085
Nsg2078
I01
sg2262
Vbaseline
p3028
sg2264
V
p3029
sg2266
Nsg2070
Nsg2094
I0
sg2267
Nsg2095
I01
sg2097
Nsg2268
F1.2
sg60
g495
sg2269
Nsg2270
I00
sg2062
Nsg2271
g2272
sg2273
Vleft
p3030
sg2054
Nsbsg2045
Nsg2035
Nsg2434
g0
(g2238
g2
Ntp3031
Rp3032
(dp3033
g2013
g59
sg2027
I01
sg2029
g2032
sg2034
Nsg2242
g0
(g2243
g2
Ntp3034
Rp3035
(dp3036
g2247
(lp3037
g2249
asg2250
Nsg2251
g2252
sg2253
g2252
sg2254
g2429
sg2256
I400
sg2257
g2252
sbsg2061
Nsg2038
g2039
sg2258
Nsg2041
I01
sg2044
Nsg182
F0.5
sg183
I0
sg2045
Nsg2035
Nsg2048
I00
sg2049
I00
sg2050
(dp3038
sg2260
Nsg2052
I00
sg2101
Nsg2080
Nsg2100
Nsg2261
Vanchor
p3039
sg2053
Nsg2085
Nsg2078
I01
sg2262
Vbottom
p3040
sg2264
V
p3041
sg2266
Nsg2070
Nsg2094
I0
sg2267
Vvertical
p3042
sg2095
I01
sg2097
Nsg2268
F1.2
sg60
g408
sg2269
Nsg2270
I00
sg2062
Nsg2271
g2272
sg2273
Vcenter
p3043
sg2054
Nsbsg2048
I00
sg2446
I01
sg2049
I00
sg2050
(dp3044
sg2448
Nsg2052
I00
sg2449
g0
(g2383
g2
Ntp3045
Rp3046
(dp3047
g2387
g0
(g2453
g2
Ntp3048
Rp3049
(dp3050
g2399
g3006
sbsg2400
g0
(g2457
g2
Ntp3051
Rp3052
(dp3053
g2399
g3006
sbsbsg2101
g7
sg2461
(dp3054
g2463
I00
ssg2464
I01
sg2080
g1395
sg2053
Nsg2465
I00
sg2466
I1
sg2467
F5.0
sg2468
(lp3055
g0
(cmatplotlib.axis
YTick
p3056
g2
Ntp3057
Rp3058
(dp3059
g2013
g59
sg2060
F0.5
sg2029
g2032
sg2474
I01
sg2027
I01
sg2034
Nsg2094
I0
sg2061
Nsg2475
F4.0
sg2476
g2272
sg2477
I00
sg2254
F4.0
sg2038
g2039
sg2478
g2479
sg2434
g0
(g2238
g2
Ntp3060
Rp3061
(dp3062
g2013
g59
sg2027
I01
sg2029
g2032
sg2034
Nsg2242
g0
(g2243
g2
Ntp3063
Rp3064
(dp3065
g2247
(lp3066
g2249
asg2250
Nsg2251
g2252
sg2253
g2252
sg2254
g2429
sg2256
I400
sg2257
g2252
sbsg2061
Nsg2038
g2039
sg2258
Nsg2041
I01
sg2044
Nsg182
I0
sg183
I0
sg2045
Nsg2035
Nsg2048
I00
sg2049
I00
sg2050
(dp3067
sg2260
Nsg2052
I00
sg2101
Nsg2080
Nsg2100
Nsg2261
Nsg2053
Nsg2085
Nsg2078
I01
sg2262
Vcenter
p3068
sg2264
V
p3069
sg2266
Nsg2070
Nsg2094
I0
sg2267
Nsg2095
I01
sg2097
Nsg2268
F1.2
sg60
g214
sg2269
Nsg2270
I00
sg2062
Nsg2271
g2272
sg2273
Vright
p3070
sg2054
Nsbsg2041
I01
sg2044
Nsg2491
I00
sg2045
Nsg2035
Nsg2492
I01
sg2048
I00
sg2049
I00
sg2050
(dp3071
sg2494
(I1
I0
tp3072
sg2052
I00
sg2496
F2.01
sg2101
g7
sg2497
I01
sg2080
g381
sg2100
Nsg2498
g3061
sg2499
g0
(g2238
g2
Ntp3073
Rp3074
(dp3075
g2013
g59
sg2027
I01
sg2029
g2032
sg2034
Nsg2242
g0
(g2243
g2
Ntp3076
Rp3077
(dp3078
g2247
(lp3079
g2249
asg2250
Nsg2251
g2252
sg2253
g2252
sg2254
g2429
sg2256
I400
sg2257
g2252
sbsg2061
Nsg2038
g2039
sg2258
Nsg2041
I01
sg2044
Nsg182
I0
sg183
I1
sg2045
Nsg2035
Nsg2048
I00
sg2049
I00
sg2050
(dp3080
sg2260
Nsg2052
I00
sg2101
Nsg2080
Nsg2100
Nsg2261
Nsg2053
Nsg2085
Nsg2078
I01
sg2262
Vcenter
p3081
sg2264
V
p3082
sg2266
Nsg2070
Nsg2094
I0
sg2267
Nsg2095
I01
sg2097
Nsg2268
F1.2
sg60
g176
sg2269
Nsg2270
I00
sg2062
Nsg2271
g2272
sg2273
Vleft
p3083
sg2054
Nsbsg2085
Nsg2511
I0
sg2078
I01
sg2070
Nsg2512
F4.0
sg2513
g0
(g2514
g2
Ntp3084
Rp3085
(dp3086
g2013
g59
sg2027
I01
sg2518
g2519
sg2029
g2032
sg2520
g2521
sg2522
Nsg2034
Nsg2061
Nsg2038
g2039
sg2523
g2524
sg2041
I01
sg2525
Nsg2044
Nsg182
Nsg183
Nsg2070
Nsg2045
Nsg2035
Nsg2048
I00
sg2526
Nsg2049
I00
sg2050
(dp3087
sg2528
Nsg2052
I00
sg2529
I00
sg2101
Nsg2530
Nsg2531
F0.5
sg2532
g2533
sg2534
Nsg2271
g2272
sg2535
g0
(g2536
g2
Ntp3088
Rp3089
(dp3090
g2535
I1
sg2540
Nsg2541
F1.0
sg60
g0
(g139
g2
Ntp3091
Rp3092
(dp3093
g14
I2
sg84
Nsg83
g26
(g27
(I0
tp3094
g29
tp3095
Rp3096
(I1
(I3
I3
tp3097
g36
I00
S'\x00\x00\x00\x00\x00\x00\xf0?\x00\x00\x00\x00\x00\x00\x00\x00\x00\x00\x00\x00\x00\x00\x00\x00\x00\x00\x00\x00\x00\x00\x00\x00\x00\x00\x00\x00\x00\x00\xf0?\x00\x00\x00\x00\x00\x00\x00\x00\x00\x00\x00\x00\x00\x00\x00\x00\x00\x00\x00\x00\x00\x00\x00\x00\x00\x00\x00\x00\x00\x00\xf0?'
p3098
tp3099
bsg58
g59
sg41
(dp3100
sbsg2552
I00
sg2553
g2554
sg2555
Nsg2098
g2556
sg2088
g2557
sg2183
g0
(g2184
g2
Ntp3101
Rp3102
(dp3103
g2188
I00
sg2189
Nsg2201
g26
(g27
(I0
tp3104
g29
tp3105
Rp3106
(I1
(I2
I2
tp3107
g36
I00
S'\x00\x00\x00\x00\x00\x00\x00\x00\x00\x00\x00\x00\x00\x00\x00\x00\x00\x00\x00\x00\x00\x00\xf0?\x00\x00\x00\x00\x00\x00\x00\x00'
p3108
tp3109
bsg2208
I00
sg2209
F0.1111111111111111
sg2210
I1
sg2211
I00
sbsbsg2053
Nsg2567
g2568
sg2082
I01
sg2569
g2570
sg2085
Nsg2571
F4.0
sg2078
I01
sg2572
Nsg2090
VNone
p3110
sg2574
(I0
tp3111
sg2094
I0
sg2576
g2577
sg2578
I0
sg2579
I5
sg2095
I01
sg2097
Nsg2580
g2524
sg2581
I01
sg60
g180
sg2582
I01
sg2583
F2.01
sg2062
Nsg2100
Nsg2584
(I0
tp3112
sg2080
Nsg2079
F1.0
sg2054
Nsg2183
Nsbsg2095
I00
sg2586
g0
(g2514
g2
Ntp3113
Rp3114
(dp3115
g2013
g59
sg2027
I01
sg2518
g2519
sg2029
g2032
sg2520
g2521
sg2522
Nsg2034
Nsg2061
Nsg2038
g2039
sg2523
g2524
sg2041
I01
sg2525
Nsg2044
Nsg182
g26
(g27
(I0
tp3116
g29
tp3117
Rp3118
(I1
(I2
tp3119
g36
I00
S'\x00\x00\x00\x00\x00\x00\x00\x00\x00\x00\x00\x00\x00\x00\x00\x00'
p3120
tp3121
bsg183
g26
(g27
(I0
tp3122
g29
tp3123
Rp3124
(I1
(I2
tp3125
g36
I00
S'\x00\x00\x00\x00\x00\x00\x00\x00\x00\x00\x00\x00\x00\x00\xf0?'
p3126
tp3127
bsg2070
Nsg2045
Nsg2035
Nsg2048
I00
sg2526
Nsg2049
I00
sg2050
(dp3128
sg2528
Nsg2052
I00
sg2529
I00
sg2101
Nsg2530
Nsg2531
F0.5
sg2532
g2533
sg2534
Nsg2271
g2272
sg2535
g0
(g2536
g2
Ntp3129
Rp3130
(dp3131
g2535
g2606
sg2540
Nsg2541
Nsg60
g0
(g410
g2
Ntp3132
Rp3133
(dp3134
g14
I1
sg84
Nsg58
g59
sg41
(dp3135
sbsg2552
I00
sg2553
g2554
sg2555
Nsg2098
g2556
sg2088
g2557
sg2183
g0
(g2184
g2
Ntp3136
Rp3137
(dp3138
g2188
I00
sg2189
Nsg2201
g26
(g27
(I0
tp3139
g29
tp3140
Rp3141
(I1
(I0
I2
tp3142
g36
I00
g2618
tp3143
bsg2208
I00
sg2209
F0.1111111111111111
sg2210
I1
sg2211
I00
sbsbsg2053
Nsg2567
g2568
sg2082
I01
sg2569
g2570
sg2085
Nsg2571
F0.0
sg2078
I01
sg2572
g26
(g27
(I0
tp3144
g29
tp3145
Rp3146
(I1
(I2
I2
tp3147
g36
I00
S'\x00\x00\x00\x00\x00\x00\x00\x00\x00\x00\x00\x00\x00\x00\x00\x00\x00\x00\x00\x00\x00\x00\xf0?\x00\x00\x00\x00\x00\x00\x00\x00'
p3148
tp3149
bsg2090
g2626
sg2574
(I0
I1
tp3150
sg2094
I0
sg2576
g2577
sg2578
I0
sg2579
I5
sg2095
I01
sg2097
F1.0
sg2580
g2524
sg2581
I00
sg60
g180
sg2582
I00
sg2062
Nsg2100
Nsg2584
(I0
I0
tp3151
sg2080
g975
sg2079
F0.5
sg2054
Nsg2183
g0
(g2184
g2
Ntp3152
Rp3153
(dp3154
g2188
I00
sg2189
Nsg2201
g3146
sg2208
I00
sg2209
F0.1111111111111111
sg2210
I180
sg2211
I00
sbsbsg2097
Nsg2053
Nsg2632
g0
(g2514
g2
Ntp3155
Rp3156
(dp3157
g2013
g59
sg2027
I01
sg2518
g2519
sg2029
g2032
sg2520
g2521
sg2522
Nsg2034
Nsg2061
Nsg2038
g2039
sg2523
g2524
sg2041
I01
sg2525
Nsg2044
Nsg182
Nsg183
Nsg2070
Nsg2045
Nsg2035
Nsg2048
I00
sg2526
Nsg2049
I00
sg2050
(dp3158
sg2528
Nsg2052
I00
sg2529
I00
sg2101
Nsg2530
Nsg2531
F0.5
sg2532
g2533
sg2534
Nsg2271
g2272
sg2535
g0
(g2536
g2
Ntp3159
Rp3160
(dp3161
g2535
I0
sg2540
Nsg2541
F1.0
sg60
g0
(g139
g2
Ntp3162
Rp3163
(dp3164
g14
I2
sg84
Nsg83
g26
(g27
(I0
tp3165
g29
tp3166
Rp3167
(I1
(I3
I3
tp3168
g36
I00
S'\x00\x00\x00\x00\x00\x00\xf0\xbf\x00\x00\x00\x00\x00\x00\x00\x00\x00\x00\x00\x00\x00\x00\x00\x00\x00\x00\x00\x00\x00\x00\x00\x00\x00\x00\x00\x00\x00\x00\xf0?\x00\x00\x00\x00\x00\x00\x00\x00\x00\x00\x00\x00\x00\x00\x00\x00\x00\x00\x00\x00\x00\x00\x00\x00\x00\x00\x00\x00\x00\x00\xf0?'
p3169
tp3170
bsg58
g59
sg41
(dp3171
sbsg2552
I00
sg2553
g2554
sg2555
Nsg2098
g2556
sg2088
g2557
sg2183
g3102
sbsg2053
Nsg2567
g2568
sg2082
I01
sg2569
g2570
sg2085
Nsg2571
F4.0
sg2078
I01
sg2572
Nsg2090
VNone
p3172
sg2574
(I1
tp3173
sg2094
I0
sg2576
g2577
sg2578
I0
sg2579
I5
sg2095
I01
sg2097
Nsg2580
g2524
sg2581
I01
sg60
g180
sg2582
I01
sg2583
F2.01
sg2062
Nsg2100
Nsg2584
(I0
tp3174
sg2080
Nsg2079
F1.0
sg2054
Nsg2183
Nsbsg60
Nsg2653
g2429
sg2654
Vytick
p3175
sg2062
Nsg2271
g2272
sg2054
Nsbag0
(g3056
g2
Ntp3176
Rp3177
(dp3178
g2013
g59
sg2060
F0.5
sg2029
g2032
sg2474
I01
sg2027
I01
sg2034
Nsg2094
I0
sg2061
Nsg2475
F4.0
sg2476
g2272
sg2477
I00
sg2254
F4.0
sg2038
g2039
sg2478
g2479
sg2434
g0
(g2238
g2
Ntp3179
Rp3180
(dp3181
g2013
g59
sg2027
I01
sg2029
g2032
sg2034
Nsg2242
g0
(g2243
g2
Ntp3182
Rp3183
(dp3184
g2247
(lp3185
g2249
asg2250
Nsg2251
g2252
sg2253
g2252
sg2254
g2429
sg2256
I400
sg2257
g2252
sbsg2061
Nsg2038
g2039
sg2258
Nsg2041
I01
sg2044
Nsg182
I0
sg183
I0
sg2045
Nsg2035
Nsg2048
I00
sg2049
I00
sg2050
(dp3186
sg2260
Nsg2052
I00
sg2101
Nsg2080
Nsg2100
Nsg2261
Nsg2053
Nsg2085
Nsg2078
I01
sg2262
g3068
sg2264
V
p3187
sg2266
Nsg2070
Nsg2094
I0
sg2267
Nsg2095
I01
sg2097
Nsg2268
F1.2
sg60
g196
sg2269
Nsg2270
I00
sg2062
Nsg2271
g2272
sg2273
g3070
sg2054
Nsbsg2041
I01
sg2044
Nsg2491
I00
sg2045
Nsg2035
Nsg2492
I01
sg2048
I00
sg2049
I00
sg2050
(dp3188
sg2494
(I1
I0
tp3189
sg2052
I00
sg2496
F2.01
sg2101
g7
sg2497
I01
sg2080
g1605
sg2100
Nsg2498
g3180
sg2499
g0
(g2238
g2
Ntp3190
Rp3191
(dp3192
g2013
g59
sg2027
I01
sg2029
g2032
sg2034
Nsg2242
g0
(g2243
g2
Ntp3193
Rp3194
(dp3195
g2247
(lp3196
g2249
asg2250
Nsg2251
g2252
sg2253
g2252
sg2254
g2429
sg2256
I400
sg2257
g2252
sbsg2061
Nsg2038
g2039
sg2258
Nsg2041
I01
sg2044
Nsg182
I0
sg183
I1
sg2045
Nsg2035
Nsg2048
I00
sg2049
I00
sg2050
(dp3197
sg2260
Nsg2052
I00
sg2101
Nsg2080
Nsg2100
Nsg2261
Nsg2053
Nsg2085
Nsg2078
I01
sg2262
g3081
sg2264
V
p3198
sg2266
Nsg2070
Nsg2094
I0
sg2267
Nsg2095
I01
sg2097
Nsg2268
F1.2
sg60
g223
sg2269
Nsg2270
I00
sg2062
Nsg2271
g2272
sg2273
g3083
sg2054
Nsbsg2085
Nsg2511
I0
sg2078
I01
sg2070
Nsg2512
F4.0
sg2513
g0
(g2514
g2
Ntp3199
Rp3200
(dp3201
g2013
g59
sg2027
I01
sg2518
g2519
sg2029
g2032
sg2520
g2521
sg2522
Nsg2034
Nsg2061
Nsg2038
g2039
sg2523
g2524
sg2041
I01
sg2525
Nsg2044
Nsg182
Nsg183
Nsg2070
Nsg2045
Nsg2035
Nsg2048
I00
sg2526
Nsg2049
I00
sg2050
(dp3202
sg2528
Nsg2052
I00
sg2529
I00
sg2101
Nsg2530
Nsg2531
F0.5
sg2532
g2533
sg2534
Nsg2271
g2272
sg2535
g0
(g2536
g2
Ntp3203
Rp3204
(dp3205
g2535
I1
sg2540
Nsg2541
F1.0
sg60
g0
(g139
g2
Ntp3206
Rp3207
(dp3208
g14
I2
sg84
Nsg83
g26
(g27
(I0
tp3209
g29
tp3210
Rp3211
(I1
(I3
I3
tp3212
g36
I00
S'\x00\x00\x00\x00\x00\x00\xf0?\x00\x00\x00\x00\x00\x00\x00\x00\x00\x00\x00\x00\x00\x00\x00\x00\x00\x00\x00\x00\x00\x00\x00\x00\x00\x00\x00\x00\x00\x00\xf0?\x00\x00\x00\x00\x00\x00\x00\x00\x00\x00\x00\x00\x00\x00\x00\x00\x00\x00\x00\x00\x00\x00\x00\x00\x00\x00\x00\x00\x00\x00\xf0?'
p3213
tp3214
bsg58
g59
sg41
(dp3215
sbsg2552
I00
sg2553
g2554
sg2555
Nsg2098
g2556
sg2088
g2557
sg2183
g3102
sbsg2053
Nsg2567
g2568
sg2082
I01
sg2569
g2570
sg2085
Nsg2571
F4.0
sg2078
I01
sg2572
Nsg2090
g3110
sg2574
g3111
sg2094
I0
sg2576
g2577
sg2578
I0
sg2579
I5
sg2095
I01
sg2097
Nsg2580
g2524
sg2581
I01
sg60
g180
sg2582
I01
sg2583
F2.01
sg2062
Nsg2100
Nsg2584
(I0
tp3216
sg2080
Nsg2079
F1.0
sg2054
Nsg2183
Nsbsg2095
I00
sg2586
g0
(g2514
g2
Ntp3217
Rp3218
(dp3219
g2013
g59
sg2027
I01
sg2518
g2519
sg2029
g2032
sg2520
g2521
sg2522
Nsg2034
Nsg2061
Nsg2038
g2039
sg2523
g2524
sg2041
I01
sg2525
Nsg2044
Nsg182
g26
(g27
(I0
tp3220
g29
tp3221
Rp3222
(I1
(I2
tp3223
g36
I00
S'\x00\x00\x00\x00\x00\x00\x00\x00\x00\x00\x00\x00\x00\x00\x00\x00'
p3224
tp3225
bsg183
g26
(g27
(I0
tp3226
g29
tp3227
Rp3228
(I1
(I2
tp3229
g36
I00
S'\x00\x00\x00\x00\x00\x00\x00\x00\x00\x00\x00\x00\x00\x00\xf0?'
p3230
tp3231
bsg2070
Nsg2045
Nsg2035
Nsg2048
I00
sg2526
Nsg2049
I00
sg2050
(dp3232
sg2528
Nsg2052
I00
sg2529
I00
sg2101
Nsg2530
Nsg2531
F0.5
sg2532
g2533
sg2534
Nsg2271
g2272
sg2535
g0
(g2536
g2
Ntp3233
Rp3234
(dp3235
g2535
g2606
sg2540
Nsg2541
Nsg60
g0
(g410
g2
Ntp3236
Rp3237
(dp3238
g14
I1
sg84
Nsg58
g59
sg41
(dp3239
sbsg2552
I00
sg2553
g2554
sg2555
Nsg2098
g2556
sg2088
g2557
sg2183
g0
(g2184
g2
Ntp3240
Rp3241
(dp3242
g2188
I00
sg2189
Nsg2201
g26
(g27
(I0
tp3243
g29
tp3244
Rp3245
(I1
(I0
I2
tp3246
g36
I00
g2618
tp3247
bsg2208
I00
sg2209
F0.1111111111111111
sg2210
I1
sg2211
I00
sbsbsg2053
Nsg2567
g2568
sg2082
I01
sg2569
g2570
sg2085
Nsg2571
F0.0
sg2078
I01
sg2572
g26
(g27
(I0
tp3248
g29
tp3249
Rp3250
(I1
(I2
I2
tp3251
g36
I00
S'\x00\x00\x00\x00\x00\x00\x00\x00\x00\x00\x00\x00\x00\x00\x00\x00\x00\x00\x00\x00\x00\x00\xf0?\x00\x00\x00\x00\x00\x00\x00\x00'
p3252
tp3253
bsg2090
g2626
sg2574
g3150
sg2094
I0
sg2576
g2577
sg2578
I0
sg2579
I5
sg2095
I01
sg2097
F1.0
sg2580
g2524
sg2581
I00
sg60
g180
sg2582
I00
sg2062
Nsg2100
Nsg2584
g3151
sg2080
g765
sg2079
F0.5
sg2054
Nsg2183
g0
(g2184
g2
Ntp3254
Rp3255
(dp3256
g2188
I00
sg2189
Nsg2201
g3250
sg2208
I00
sg2209
F0.1111111111111111
sg2210
I180
sg2211
I00
sbsbsg2097
Nsg2053
Nsg2632
g0
(g2514
g2
Ntp3257
Rp3258
(dp3259
g2013
g59
sg2027
I01
sg2518
g2519
sg2029
g2032
sg2520
g2521
sg2522
Nsg2034
Nsg2061
Nsg2038
g2039
sg2523
g2524
sg2041
I01
sg2525
Nsg2044
Nsg182
Nsg183
Nsg2070
Nsg2045
Nsg2035
Nsg2048
I00
sg2526
Nsg2049
I00
sg2050
(dp3260
sg2528
Nsg2052
I00
sg2529
I00
sg2101
Nsg2530
Nsg2531
F0.5
sg2532
g2533
sg2534
Nsg2271
g2272
sg2535
g0
(g2536
g2
Ntp3261
Rp3262
(dp3263
g2535
I0
sg2540
Nsg2541
F1.0
sg60
g0
(g139
g2
Ntp3264
Rp3265
(dp3266
g14
I2
sg84
Nsg83
g26
(g27
(I0
tp3267
g29
tp3268
Rp3269
(I1
(I3
I3
tp3270
g36
I00
S'\x00\x00\x00\x00\x00\x00\xf0\xbf\x00\x00\x00\x00\x00\x00\x00\x00\x00\x00\x00\x00\x00\x00\x00\x00\x00\x00\x00\x00\x00\x00\x00\x00\x00\x00\x00\x00\x00\x00\xf0?\x00\x00\x00\x00\x00\x00\x00\x00\x00\x00\x00\x00\x00\x00\x00\x00\x00\x00\x00\x00\x00\x00\x00\x00\x00\x00\x00\x00\x00\x00\xf0?'
p3271
tp3272
bsg58
g59
sg41
(dp3273
sbsg2552
I00
sg2553
g2554
sg2555
Nsg2098
g2556
sg2088
g2557
sg2183
g3102
sbsg2053
Nsg2567
g2568
sg2082
I01
sg2569
g2570
sg2085
Nsg2571
F4.0
sg2078
I01
sg2572
Nsg2090
g3172
sg2574
g3173
sg2094
I0
sg2576
g2577
sg2578
I0
sg2579
I5
sg2095
I01
sg2097
Nsg2580
g2524
sg2581
I01
sg60
g180
sg2582
I01
sg2583
F2.01
sg2062
Nsg2100
Nsg2584
(I0
tp3274
sg2080
Nsg2079
F1.0
sg2054
Nsg2183
Nsbsg60
Nsg2653
g2429
sg2654
g3175
sg2062
Nsg2271
g2272
sg2054
Nsbasg2755
I01
sg2108
g0
(g2109
g2
Ntp3275
Rp3276
sg2085
Nsg2078
I01
sg2758
I01
sg2070
Nsg2094
I0
sg2759
I1
sg2760
Nsg2095
I00
sg2097
Nsg2761
g3030
sg60
Nsg2763
Vleft
p3277
sg2062
Nsg2100
Nsg2579
I15
sg2765
(lp3278
g0
(g3056
g2
Ntp3279
Rp3280
(dp3281
g2013
g59
sg2060
F0.5
sg2029
g2032
sg2474
I01
sg2027
I01
sg2034
Nsg2094
I0
sg2061
Nsg2475
F4.0
sg2476
g2272
sg2477
I00
sg2254
F2.0
sg2038
g2039
sg2478
g2479
sg2434
g0
(g2238
g2
Ntp3282
Rp3283
(dp3284
g2013
g59
sg2027
I01
sg2029
g2032
sg2034
Nsg2242
g0
(g2243
g2
Ntp3285
Rp3286
(dp3287
g2247
(lp3288
g2249
asg2250
Nsg2251
g2252
sg2253
g2252
sg2254
g2429
sg2256
I400
sg2257
g2252
sbsg2061
Nsg2038
g2039
sg2258
Nsg2041
I01
sg2044
Nsg182
I0
sg183
I0
sg2045
Nsg2035
Nsg2048
I00
sg2049
I00
sg2050
(dp3289
sg2260
Nsg2052
I00
sg2101
Nsg2080
Nsg2100
Nsg2261
Nsg2053
Nsg2085
Nsg2078
I01
sg2262
g3068
sg2264
V
p3290
sg2266
Nsg2070
Nsg2094
I0
sg2267
Nsg2095
I01
sg2097
Nsg2268
F1.2
sg60
g187
sg2269
Nsg2270
I00
sg2062
Nsg2271
g2272
sg2273
g3070
sg2054
Nsbsg2041
I01
sg2044
Nsg2491
I00
sg2045
Nsg2035
Nsg2492
I01
sg2048
I00
sg2049
I00
sg2050
(dp3291
sg2494
(I1
I0
tp3292
sg2052
I00
sg2496
I2
sg2101
g7
sg2497
I01
sg2080
g1815
sg2100
Nsg2498
g3283
sg2499
g0
(g2238
g2
Ntp3293
Rp3294
(dp3295
g2013
g59
sg2027
I01
sg2029
g2032
sg2034
Nsg2242
g0
(g2243
g2
Ntp3296
Rp3297
(dp3298
g2247
(lp3299
g2249
asg2250
Nsg2251
g2252
sg2253
g2252
sg2254
g2429
sg2256
I400
sg2257
g2252
sbsg2061
Nsg2038
g2039
sg2258
Nsg2041
I01
sg2044
Nsg182
I0
sg183
I1
sg2045
Nsg2035
Nsg2048
I00
sg2049
I00
sg2050
(dp3300
sg2260
Nsg2052
I00
sg2101
Nsg2080
Nsg2100
Nsg2261
Nsg2053
Nsg2085
Nsg2078
I01
sg2262
g3081
sg2264
V
p3301
sg2266
Nsg2070
Nsg2094
I0
sg2267
Nsg2095
I01
sg2097
Nsg2268
F1.2
sg60
g241
sg2269
Nsg2270
I00
sg2062
Nsg2271
g2272
sg2273
g3083
sg2054
Nsbsg2085
Nsg2511
I0
sg2078
I01
sg2070
Nsg2512
F4.0
sg2513
g0
(g2514
g2
Ntp3302
Rp3303
(dp3304
g2013
g59
sg2027
I01
sg2518
g2519
sg2029
g2032
sg2520
g2521
sg2522
Nsg2034
Nsg2061
Nsg2038
g2039
sg2523
g2524
sg2041
I01
sg2525
Nsg2044
Nsg182
Nsg183
Nsg2070
Nsg2045
Nsg2035
Nsg2048
I00
sg2526
Nsg2049
I00
sg2050
(dp3305
sg2528
Nsg2052
I00
sg2529
I00
sg2101
Nsg2530
Nsg2531
F0.5
sg2532
g2533
sg2534
Nsg2271
g2272
sg2535
g0
(g2536
g2
Ntp3306
Rp3307
(dp3308
g2535
I1
sg2540
Nsg2541
F1.0
sg60
g0
(g139
g2
Ntp3309
Rp3310
(dp3311
g14
I2
sg84
Nsg83
g26
(g27
(I0
tp3312
g29
tp3313
Rp3314
(I1
(I3
I3
tp3315
g36
I00
S'\x00\x00\x00\x00\x00\x00\xf0?\x00\x00\x00\x00\x00\x00\x00\x00\x00\x00\x00\x00\x00\x00\x00\x00\x00\x00\x00\x00\x00\x00\x00\x00\x00\x00\x00\x00\x00\x00\xf0?\x00\x00\x00\x00\x00\x00\x00\x00\x00\x00\x00\x00\x00\x00\x00\x00\x00\x00\x00\x00\x00\x00\x00\x00\x00\x00\x00\x00\x00\x00\xf0?'
p3316
tp3317
bsg58
g59
sg41
(dp3318
sbsg2552
I00
sg2553
g2554
sg2555
Nsg2098
g2556
sg2088
g2557
sg2183
g3102
sbsg2053
Nsg2567
g2568
sg2082
I01
sg2569
g2570
sg2085
Nsg2571
F2.0
sg2078
I01
sg2572
Nsg2090
g3110
sg2574
g3111
sg2094
I0
sg2576
g2577
sg2578
I0
sg2579
I5
sg2095
I01
sg2097
Nsg2580
g2524
sg2581
I01
sg60
g180
sg2582
I01
sg2583
I2
sg2062
Nsg2100
Nsg2584
(I0
tp3319
sg2080
Nsg2079
F1.0
sg2054
Nsg2183
Nsbsg2095
I00
sg2586
g0
(g2514
g2
Ntp3320
Rp3321
(dp3322
g2013
g59
sg2027
I01
sg2518
g2519
sg2029
g2032
sg2520
g2521
sg2522
Nsg2034
Nsg2061
Nsg2038
g2039
sg2523
g2524
sg2041
I01
sg2525
Nsg2044
Nsg182
g26
(g27
(I0
tp3323
g29
tp3324
Rp3325
(I1
(I2
tp3326
g36
I00
S'\x00\x00\x00\x00\x00\x00\x00\x00\x00\x00\x00\x00\x00\x00\x00\x00'
p3327
tp3328
bsg183
g26
(g27
(I0
tp3329
g29
tp3330
Rp3331
(I1
(I2
tp3332
g36
I00
S'\x00\x00\x00\x00\x00\x00\x00\x00\x00\x00\x00\x00\x00\x00\xf0?'
p3333
tp3334
bsg2070
Nsg2045
Nsg2035
Nsg2048
I00
sg2526
Nsg2049
I00
sg2050
(dp3335
sg2528
Nsg2052
I00
sg2529
I00
sg2101
Nsg2530
Nsg2531
F0.5
sg2532
g2533
sg2534
Nsg2271
g2272
sg2535
g0
(g2536
g2
Ntp3336
Rp3337
(dp3338
g2535
g2606
sg2540
Nsg2541
Nsg60
g0
(g410
g2
Ntp3339
Rp3340
(dp3341
g14
I1
sg84
Nsg58
g59
sg41
(dp3342
sbsg2552
I00
sg2553
g2554
sg2555
Nsg2098
g2556
sg2088
g2557
sg2183
g0
(g2184
g2
Ntp3343
Rp3344
(dp3345
g2188
I00
sg2189
Nsg2201
g26
(g27
(I0
tp3346
g29
tp3347
Rp3348
(I1
(I0
I2
tp3349
g36
I00
g2618
tp3350
bsg2208
I00
sg2209
F0.1111111111111111
sg2210
I1
sg2211
I00
sbsbsg2053
Nsg2567
g2568
sg2082
I01
sg2569
g2570
sg2085
Nsg2571
F0.0
sg2078
I01
sg2572
g26
(g27
(I0
tp3351
g29
tp3352
Rp3353
(I1
(I2
I2
tp3354
g36
I00
S'\x00\x00\x00\x00\x00\x00\x00\x00\x00\x00\x00\x00\x00\x00\x00\x00\x00\x00\x00\x00\x00\x00\xf0?\x00\x00\x00\x00\x00\x00\x00\x00'
p3355
tp3356
bsg2090
g2626
sg2574
g3150
sg2094
I0
sg2576
g2577
sg2578
I0
sg2579
I5
sg2095
I01
sg2097
F1.0
sg2580
g2524
sg2581
I00
sg60
g180
sg2582
I00
sg2062
Nsg2100
Nsg2584
g3151
sg2080
g1255
sg2079
F0.5
sg2054
Nsg2183
g0
(g2184
g2
Ntp3357
Rp3358
(dp3359
g2188
I00
sg2189
Nsg2201
g3353
sg2208
I00
sg2209
F0.1111111111111111
sg2210
I180
sg2211
I00
sbsbsg2097
Nsg2053
Nsg2632
g0
(g2514
g2
Ntp3360
Rp3361
(dp3362
g2013
g59
sg2027
I01
sg2518
g2519
sg2029
g2032
sg2520
g2521
sg2522
Nsg2034
Nsg2061
Nsg2038
g2039
sg2523
g2524
sg2041
I01
sg2525
Nsg2044
Nsg182
Nsg183
Nsg2070
Nsg2045
Nsg2035
Nsg2048
I00
sg2526
Nsg2049
I00
sg2050
(dp3363
sg2528
Nsg2052
I00
sg2529
I00
sg2101
Nsg2530
Nsg2531
F0.5
sg2532
g2533
sg2534
Nsg2271
g2272
sg2535
g0
(g2536
g2
Ntp3364
Rp3365
(dp3366
g2535
I0
sg2540
Nsg2541
F1.0
sg60
g0
(g139
g2
Ntp3367
Rp3368
(dp3369
g14
I2
sg84
Nsg83
g26
(g27
(I0
tp3370
g29
tp3371
Rp3372
(I1
(I3
I3
tp3373
g36
I00
S'\x00\x00\x00\x00\x00\x00\xf0\xbf\x00\x00\x00\x00\x00\x00\x00\x00\x00\x00\x00\x00\x00\x00\x00\x00\x00\x00\x00\x00\x00\x00\x00\x00\x00\x00\x00\x00\x00\x00\xf0?\x00\x00\x00\x00\x00\x00\x00\x00\x00\x00\x00\x00\x00\x00\x00\x00\x00\x00\x00\x00\x00\x00\x00\x00\x00\x00\x00\x00\x00\x00\xf0?'
p3374
tp3375
bsg58
g59
sg41
(dp3376
sbsg2552
I00
sg2553
g2554
sg2555
Nsg2098
g2556
sg2088
g2557
sg2183
g3102
sbsg2053
Nsg2567
g2568
sg2082
I01
sg2569
g2570
sg2085
Nsg2571
F2.0
sg2078
I01
sg2572
Nsg2090
g3172
sg2574
g3173
sg2094
I0
sg2576
g2577
sg2578
I0
sg2579
I5
sg2095
I01
sg2097
Nsg2580
g2524
sg2581
I01
sg60
g180
sg2582
I01
sg2583
I2
sg2062
Nsg2100
Nsg2584
(I0
tp3377
sg2080
Nsg2079
F1.0
sg2054
Nsg2183
Nsbsg60
Nsg2653
g2429
sg2654
g3175
sg2062
Nsg2271
g2272
sg2054
Nsbag0
(g3056
g2
Ntp3378
Rp3379
(dp3380
g2013
g59
sg2060
F0.5
sg2029
g2032
sg2474
I01
sg2027
I01
sg2034
Nsg2094
I0
sg2061
Nsg2475
F4.0
sg2476
g2272
sg2477
I00
sg2254
F2.0
sg2038
g2039
sg2478
g2479
sg2434
g0
(g2238
g2
Ntp3381
Rp3382
(dp3383
g2013
g59
sg2027
I01
sg2029
g2032
sg2034
Nsg2242
g0
(g2243
g2
Ntp3384
Rp3385
(dp3386
g2247
(lp3387
g2249
asg2250
Nsg2251
g2252
sg2253
g2252
sg2254
g2429
sg2256
I400
sg2257
g2252
sbsg2061
Nsg2038
g2039
sg2258
Nsg2041
I01
sg2044
Nsg182
I0
sg183
I0
sg2045
Nsg2035
Nsg2048
I00
sg2049
I00
sg2050
(dp3388
sg2260
Nsg2052
I00
sg2101
Nsg2080
Nsg2100
Nsg2261
Nsg2053
Nsg2085
Nsg2078
I01
sg2262
g3068
sg2264
V
p3389
sg2266
Nsg2070
Nsg2094
I0
sg2267
Nsg2095
I01
sg2097
Nsg2268
F1.2
sg60
g232
sg2269
Nsg2270
I00
sg2062
Nsg2271
g2272
sg2273
g3070
sg2054
Nsbsg2041
I01
sg2044
Nsg2491
I00
sg2045
Nsg2035
Nsg2492
I01
sg2048
I00
sg2049
I00
sg2050
(dp3390
sg2494
(I1
I0
tp3391
sg2052
I00
sg2496
I2
sg2101
g7
sg2497
I01
sg2080
g1185
sg2100
Nsg2498
g3382
sg2499
g0
(g2238
g2
Ntp3392
Rp3393
(dp3394
g2013
g59
sg2027
I01
sg2029
g2032
sg2034
Nsg2242
g0
(g2243
g2
Ntp3395
Rp3396
(dp3397
g2247
(lp3398
g2249
asg2250
Nsg2251
g2252
sg2253
g2252
sg2254
g2429
sg2256
I400
sg2257
g2252
sbsg2061
Nsg2038
g2039
sg2258
Nsg2041
I01
sg2044
Nsg182
I0
sg183
I1
sg2045
Nsg2035
Nsg2048
I00
sg2049
I00
sg2050
(dp3399
sg2260
Nsg2052
I00
sg2101
Nsg2080
Nsg2100
Nsg2261
Nsg2053
Nsg2085
Nsg2078
I01
sg2262
g3081
sg2264
V
p3400
sg2266
Nsg2070
Nsg2094
I0
sg2267
Nsg2095
I01
sg2097
Nsg2268
F1.2
sg60
g205
sg2269
Nsg2270
I00
sg2062
Nsg2271
g2272
sg2273
g3083
sg2054
Nsbsg2085
Nsg2511
I0
sg2078
I01
sg2070
Nsg2512
F4.0
sg2513
g0
(g2514
g2
Ntp3401
Rp3402
(dp3403
g2013
g59
sg2027
I01
sg2518
g2519
sg2029
g2032
sg2520
g2521
sg2522
Nsg2034
Nsg2061
Nsg2038
g2039
sg2523
g2524
sg2041
I01
sg2525
Nsg2044
Nsg182
Nsg183
Nsg2070
Nsg2045
Nsg2035
Nsg2048
I00
sg2526
Nsg2049
I00
sg2050
(dp3404
sg2528
Nsg2052
I00
sg2529
I00
sg2101
Nsg2530
Nsg2531
F0.5
sg2532
g2533
sg2534
Nsg2271
g2272
sg2535
g0
(g2536
g2
Ntp3405
Rp3406
(dp3407
g2535
I1
sg2540
Nsg2541
F1.0
sg60
g0
(g139
g2
Ntp3408
Rp3409
(dp3410
g14
I2
sg84
Nsg83
g26
(g27
(I0
tp3411
g29
tp3412
Rp3413
(I1
(I3
I3
tp3414
g36
I00
S'\x00\x00\x00\x00\x00\x00\xf0?\x00\x00\x00\x00\x00\x00\x00\x00\x00\x00\x00\x00\x00\x00\x00\x00\x00\x00\x00\x00\x00\x00\x00\x00\x00\x00\x00\x00\x00\x00\xf0?\x00\x00\x00\x00\x00\x00\x00\x00\x00\x00\x00\x00\x00\x00\x00\x00\x00\x00\x00\x00\x00\x00\x00\x00\x00\x00\x00\x00\x00\x00\xf0?'
p3415
tp3416
bsg58
g59
sg41
(dp3417
sbsg2552
I00
sg2553
g2554
sg2555
Nsg2098
g2556
sg2088
g2557
sg2183
g3102
sbsg2053
Nsg2567
g2568
sg2082
I01
sg2569
g2570
sg2085
Nsg2571
F2.0
sg2078
I01
sg2572
Nsg2090
g3110
sg2574
g3111
sg2094
I0
sg2576
g2577
sg2578
I0
sg2579
I5
sg2095
I01
sg2097
Nsg2580
g2524
sg2581
I01
sg60
g180
sg2582
I01
sg2583
I2
sg2062
Nsg2100
Nsg2584
(I0
tp3418
sg2080
Nsg2079
F1.0
sg2054
Nsg2183
Nsbsg2095
I00
sg2586
g0
(g2514
g2
Ntp3419
Rp3420
(dp3421
g2013
g59
sg2027
I01
sg2518
g2519
sg2029
g2032
sg2520
g2521
sg2522
Nsg2034
Nsg2061
Nsg2038
g2039
sg2523
g2524
sg2041
I01
sg2525
Nsg2044
Nsg182
g26
(g27
(I0
tp3422
g29
tp3423
Rp3424
(I1
(I2
tp3425
g36
I00
S'\x00\x00\x00\x00\x00\x00\x00\x00\x00\x00\x00\x00\x00\x00\x00\x00'
p3426
tp3427
bsg183
g26
(g27
(I0
tp3428
g29
tp3429
Rp3430
(I1
(I2
tp3431
g36
I00
S'\x00\x00\x00\x00\x00\x00\x00\x00\x00\x00\x00\x00\x00\x00\xf0?'
p3432
tp3433
bsg2070
Nsg2045
Nsg2035
Nsg2048
I00
sg2526
Nsg2049
I00
sg2050
(dp3434
sg2528
Nsg2052
I00
sg2529
I00
sg2101
Nsg2530
Nsg2531
F0.5
sg2532
g2533
sg2534
Nsg2271
g2272
sg2535
g0
(g2536
g2
Ntp3435
Rp3436
(dp3437
g2535
g2606
sg2540
Nsg2541
Nsg60
g0
(g410
g2
Ntp3438
Rp3439
(dp3440
g14
I1
sg84
Nsg58
g59
sg41
(dp3441
sbsg2552
I00
sg2553
g2554
sg2555
Nsg2098
g2556
sg2088
g2557
sg2183
g0
(g2184
g2
Ntp3442
Rp3443
(dp3444
g2188
I00
sg2189
Nsg2201
g26
(g27
(I0
tp3445
g29
tp3446
Rp3447
(I1
(I0
I2
tp3448
g36
I00
g2618
tp3449
bsg2208
I00
sg2209
F0.1111111111111111
sg2210
I1
sg2211
I00
sbsbsg2053
Nsg2567
g2568
sg2082
I01
sg2569
g2570
sg2085
Nsg2571
F0.0
sg2078
I01
sg2572
g26
(g27
(I0
tp3450
g29
tp3451
Rp3452
(I1
(I2
I2
tp3453
g36
I00
S'\x00\x00\x00\x00\x00\x00\x00\x00\x00\x00\x00\x00\x00\x00\x00\x00\x00\x00\x00\x00\x00\x00\xf0?\x00\x00\x00\x00\x00\x00\x00\x00'
p3454
tp3455
bsg2090
g2626
sg2574
g3150
sg2094
I0
sg2576
g2577
sg2578
I0
sg2579
I5
sg2095
I01
sg2097
F1.0
sg2580
g2524
sg2581
I00
sg60
g180
sg2582
I00
sg2062
Nsg2100
Nsg2584
g3151
sg2080
g1465
sg2079
F0.5
sg2054
Nsg2183
g0
(g2184
g2
Ntp3456
Rp3457
(dp3458
g2188
I00
sg2189
Nsg2201
g3452
sg2208
I00
sg2209
F0.1111111111111111
sg2210
I180
sg2211
I00
sbsbsg2097
Nsg2053
Nsg2632
g0
(g2514
g2
Ntp3459
Rp3460
(dp3461
g2013
g59
sg2027
I01
sg2518
g2519
sg2029
g2032
sg2520
g2521
sg2522
Nsg2034
Nsg2061
Nsg2038
g2039
sg2523
g2524
sg2041
I01
sg2525
Nsg2044
Nsg182
Nsg183
Nsg2070
Nsg2045
Nsg2035
Nsg2048
I00
sg2526
Nsg2049
I00
sg2050
(dp3462
sg2528
Nsg2052
I00
sg2529
I00
sg2101
Nsg2530
Nsg2531
F0.5
sg2532
g2533
sg2534
Nsg2271
g2272
sg2535
g0
(g2536
g2
Ntp3463
Rp3464
(dp3465
g2535
I0
sg2540
Nsg2541
F1.0
sg60
g0
(g139
g2
Ntp3466
Rp3467
(dp3468
g14
I2
sg84
Nsg83
g26
(g27
(I0
tp3469
g29
tp3470
Rp3471
(I1
(I3
I3
tp3472
g36
I00
S'\x00\x00\x00\x00\x00\x00\xf0\xbf\x00\x00\x00\x00\x00\x00\x00\x00\x00\x00\x00\x00\x00\x00\x00\x00\x00\x00\x00\x00\x00\x00\x00\x00\x00\x00\x00\x00\x00\x00\xf0?\x00\x00\x00\x00\x00\x00\x00\x00\x00\x00\x00\x00\x00\x00\x00\x00\x00\x00\x00\x00\x00\x00\x00\x00\x00\x00\x00\x00\x00\x00\xf0?'
p3473
tp3474
bsg58
g59
sg41
(dp3475
sbsg2552
I00
sg2553
g2554
sg2555
Nsg2098
g2556
sg2088
g2557
sg2183
g3102
sbsg2053
Nsg2567
g2568
sg2082
I01
sg2569
g2570
sg2085
Nsg2571
F2.0
sg2078
I01
sg2572
Nsg2090
g3172
sg2574
g3173
sg2094
I0
sg2576
g2577
sg2578
I0
sg2579
I5
sg2095
I01
sg2097
Nsg2580
g2524
sg2581
I01
sg60
g180
sg2582
I01
sg2583
I2
sg2062
Nsg2100
Nsg2584
(I0
tp3476
sg2080
Nsg2079
F1.0
sg2054
Nsg2183
Nsbsg60
Nsg2653
g2429
sg2654
g3175
sg2062
Nsg2271
g2272
sg2054
Nsbasg2054
Nsg2965
(dp3477
sg2967
I01
sbsS'_axisbelow'
p3478
I00
sg2027
I01
sg2154
(lp3479
g0
(cmatplotlib.patches
Polygon
p3480
g2
Ntp3481
Rp3482
(dp3483
g2013
V_line0
p3484
sg2027
I01
sg2028
I01
sg2029
g2032
sS'_closed'
p3485
I01
sg2034
Nsg2061
Nsg2038
g2039
sg2062
Nsg2041
I01
sg2063
g0
(g410
g2
Ntp3486
Rp3487
(dp3488
g14
I1
sg84
Nsg58
g59
sg41
(dp3489
sbsg2068
(F0.0
F0.0
F0.0
F1.0
tp3490
sg2044
Nsg2070
Nsg2045
Nsg2035
Nsg2048
I00
sg2049
I00
sg2050
(dp3491
sg2052
I00
sg2077
Nsg2078
I01
sg2079
F1.0
sg2080
g1745
sg2053
Nsg2082
I01
sg2083
Vb
p3492
sg2085
Nsg2086
(F0.0
F0.0
F1.0
F1.0
tp3493
sg2088
g2089
sg2090
g2091
sg2092
g2272
sg2094
I0
sg2095
I01
sg2097
Nsg60
g70
sg2098
g2099
sg2100
Nsg2101
g7
sg2054
Nsg2183
g0
(g2184
g2
Ntp3494
Rp3495
(dp3496
g2188
I00
sg2189
g26
(g27
(I0
tp3497
g29
tp3498
Rp3499
(I1
(I7
tp3500
g2196
I00
S'\x01\x02\x02\x02\x02\x02O'
p3501
tp3502
bsg2201
g26
(g27
(I0
tp3503
g29
tp3504
Rp3505
(I1
(I7
I2
tp3506
g36
I00
S'\x00\x00\x00\x00\x00\x009@\x00\x00\x00\x00\x00 g@\x00\x00\x00\x00\x00\xc0R@\x00\x00\x00\x00\x00 g@\x00\x00\x00\x00\x00\x00Y@\x00\x00\x00\x00\x00\xc0b@\x00\x00\x00\x00\x00\xc0R@\x00\x00\x00\x00\x00\x00^@\x00\x00\x00\x00\x00\x00I@\x00\x00\x00\x00\x00\xc0b@\x00\x00\x00\x00\x00\x004@\x00\x00\x00\x00\x00\x00^@\x00\x00\x00\x00\x00\x009@\x00\x00\x00\x00\x00 g@'
p3507
tp3508
bsg2208
I00
sg2209
F0.1111111111111111
sg2210
I1
sg2211
I00
sbsbag0
(g3480
g2
Ntp3509
Rp3510
(dp3511
g2013
V_line1
p3512
sg2027
I01
sg2028
I01
sg2029
g2032
sg3485
I01
sg2034
Nsg2061
Nsg2038
g2039
sg2062
Nsg2041
I01
sg2063
g0
(g410
g2
Ntp3513
Rp3514
(dp3515
g14
I1
sg84
Nsg58
g59
sg41
(dp3516
sbsg2068
(F0.0
F0.0
F0.0
F1.0
tp3517
sg2044
Nsg2070
Nsg2045
Nsg2035
Nsg2048
I00
sg2049
I00
sg2050
(dp3518
sg2052
I00
sg2077
Nsg2078
I01
sg2079
F1.0
sg2080
g1885
sg2053
Nsg2082
I01
sg2083
g3492
sg2085
Nsg2086
(F0.0
F0.0
F1.0
F1.0
tp3519
sg2088
g2089
sg2090
g2091
sg2092
g2272
sg2094
I0
sg2095
I01
sg2097
Nsg60
g70
sg2098
g2099
sg2100
Nsg2101
g7
sg2054
Nsg2183
g0
(g2184
g2
Ntp3520
Rp3521
(dp3522
g2188
I00
sg2189
g26
(g27
(I0
tp3523
g29
tp3524
Rp3525
(I1
(I5
tp3526
g2196
I00
S'\x01\x02\x02\x02O'
p3527
tp3528
bsg2201
g26
(g27
(I0
tp3529
g29
tp3530
Rp3531
(I1
(I5
I2
tp3532
g36
I00
S'\x00\x00\x00\x00\x00\x00i@\x00\x00\x00\x00\x00\x009@\x00\x00\x00\x00\x00 l@\x00\x00\x00\x00\x00\x00$@\x00\x00\x00\x00\x00@o@\x00\x00\x00\x00\x00\x009@\x00\x00\x00\x00\x00 l@\x00\x00\x00\x00\x00\x00D@\x00\x00\x00\x00\x00\x00i@\x00\x00\x00\x00\x00\x009@'
p3533
tp3534
bsg2208
I00
sg2209
F0.1111111111111111
sg2210
I1
sg2211
I00
sbsbag0
(g3480
g2
Ntp3535
Rp3536
(dp3537
g2013
V_line2
p3538
sg2027
I01
sg2028
I01
sg2029
g2032
sg3485
I01
sg2034
Nsg2061
Nsg2038
g2039
sg2062
Nsg2041
I01
sg2063
g0
(g410
g2
Ntp3539
Rp3540
(dp3541
g14
I1
sg84
Nsg58
g59
sg41
(dp3542
sbsg2068
(F0.0
F0.0
F0.0
F1.0
tp3543
sg2044
Nsg2070
Nsg2045
Nsg2035
Nsg2048
I00
sg2049
I00
sg2050
(dp3544
sg2052
I00
sg2077
Nsg2078
I01
sg2079
F1.0
sg2080
g1675
sg2053
Nsg2082
I01
sg2083
g3492
sg2085
Nsg2086
(F0.0
F0.0
F1.0
F1.0
tp3545
sg2088
g2089
sg2090
g2091
sg2092
g2272
sg2094
I0
sg2095
I01
sg2097
Nsg60
g70
sg2098
g2099
sg2100
Nsg2101
g7
sg2054
Nsg2183
g0
(g2184
g2
Ntp3546
Rp3547
(dp3548
g2188
I00
sg2189
g26
(g27
(I0
tp3549
g29
tp3550
Rp3551
(I1
(I5
tp3552
g2196
I00
S'\x01\x02\x02\x02O'
p3553
tp3554
bsg2201
g26
(g27
(I0
tp3555
g29
tp3556
Rp3557
(I1
(I5
I2
tp3558
g36
I00
S'\n\xd7\xa3p=\n>@\x00\x00\x00\x00\x00\xe0P@\x00\x00\x00\x00\x00\xc0W@\x00\x00\x00\x00\x00\x00>@\x00\x00\x00\x00\x00@Z@)\\\x8f\xc2\xf5\xa8G@\x85\xebQ\xb8\x1e\x05D@\x14\xaeG\xe1z4U@\n\xd7\xa3p=\n>@\x00\x00\x00\x00\x00\xe0P@'
p3559
tp3560
bsg2208
I00
sg2209
F0.1111111111111111
sg2210
I1
sg2211
I00
sbsbasS'_ycid'
p3561
I1
sS'spines'
p3562
(dp3563
Vtop
p3564
g0
(cmatplotlib.spines
Spine
p3565
g2
Ntp3566
Rp3567
(dp3568
g2013
g59
sg2420
I00
sg2028
I01
sg2029
g2032
sS'_bounds'
p3569
Nsg2027
I01
sg2034
Nsg2061
Nsg2038
g2039
sg2062
Nsg2041
I01
sg2399
g2380
sg2063
g0
(g410
g2
Ntp3570
Rp3571
(dp3572
g14
I1
sg84
Nsg58
g59
sg41
(dp3573
sbsg2068
(F0.0
F0.0
F0.0
F1.0
tp3574
sg2044
Nsg2070
Nsg2045
Nsg2035
Nsg2048
I00
sg2049
I00
sg2050
(dp3575
sg2348
(Voutward
p3576
F0.0
tp3577
sg2052
I00
sg2077
Nsg2078
I01
sg2079
F1.0
sS'_patch_type'
p3578
Vline
p3579
sg2053
Nsg2082
I01
sg2083
Vnone
p3580
sg2085
Nsg2086
g2332
sg2088
g2089
sg2176
g0
(g410
g2
Ntp3581
Rp3582
(dp3583
g14
I1
sg84
Nsg58
g59
sg41
(dp3584
sbsg2090
g2091
sg2092
g2272
sg2094
I0
sS'_spine_transform'
p3585
(Videntity
p3586
g0
(g410
g2
Ntp3587
Rp3588
(dp3589
g14
I1
sg84
Nsg58
g59
sg41
(dp3590
sbtp3591
sg2095
I01
sg2097
NsS'spine_type'
p3592
g3564
sg60
g259
sg2080
Nsg2583
F2.5
sg2098
Vprojecting
p3593
sg2100
Nsg2101
g7
sg2054
Nsg2183
g0
(g2184
g2
Ntp3594
Rp3595
(dp3596
g2188
I00
sg2189
Nsg2201
g26
(g27
(I0
tp3597
g29
tp3598
Rp3599
(I1
(I2
I2
tp3600
g36
I00
S'\x00\x00\x00\x00\x00\x00*@\x00\x00\x00\x00\x00\x00\xf0?\x00\x00\x00\x00\x00\x00*@\x00\x00\x00\x00\x00\x00\xf0?'
p3601
tp3602
bsg2208
I00
sg2209
F0.1111111111111111
sg2210
I1
sg2211
I00
sbsbsVright
p3603
g0
(g3565
g2
Ntp3604
Rp3605
(dp3606
g2013
g59
sg2420
I00
sg2028
I01
sg2029
g2032
sg3569
Nsg2027
I01
sg2034
Nsg2061
Nsg2038
g2039
sg2062
Nsg2041
I01
sg2399
g3006
sg2063
g0
(g410
g2
Ntp3607
Rp3608
(dp3609
g14
I1
sg84
Nsg58
g59
sg41
(dp3610
sbsg2068
(F0.0
F0.0
F0.0
F1.0
tp3611
sg2044
Nsg2070
Nsg2045
Nsg2035
Nsg2048
I00
sg2049
I00
sg2050
(dp3612
sg2348
g3577
sg2052
I00
sg2077
Nsg2078
I01
sg2079
F1.0
sg3578
g3579
sg2053
Nsg2082
I01
sg2083
g3580
sg2085
Nsg2086
g2332
sg2088
g2089
sg2176
g0
(g410
g2
Ntp3613
Rp3614
(dp3615
g14
I1
sg84
Nsg58
g59
sg41
(dp3616
sbsg2090
g2091
sg2092
g2272
sg2094
I0
sg3585
(g3586
g0
(g410
g2
Ntp3617
Rp3618
(dp3619
g14
I1
sg84
Nsg58
g59
sg41
(dp3620
sbtp3621
sg2095
I01
sg2097
Nsg3592
g3603
sg60
g180
sg2080
Nsg2583
F2.5
sg2098
g3593
sg2100
Nsg2101
g7
sg2054
Nsg2183
g0
(g2184
g2
Ntp3622
Rp3623
(dp3624
g2188
I00
sg2189
Nsg2201
g26
(g27
(I0
tp3625
g29
tp3626
Rp3627
(I1
(I2
I2
tp3628
g36
I00
S'\x00\x00\x00\x00\x00\x00\xf0?\x00\x00\x00\x00\x00\x00*@\x00\x00\x00\x00\x00\x00\xf0?\x00\x00\x00\x00\x00\x00*@'
p3629
tp3630
bsg2208
I00
sg2209
F0.1111111111111111
sg2210
I1
sg2211
I00
sbsbsVbottom
p3631
g0
(g3565
g2
Ntp3632
Rp3633
(dp3634
g2013
g59
sg2420
I00
sg2028
I01
sg2029
g2032
sg3569
Nsg2027
I01
sg2034
Nsg2061
Nsg2038
g2039
sg2062
Nsg2041
I01
sg2399
g2380
sg2063
g0
(g410
g2
Ntp3635
Rp3636
(dp3637
g14
I1
sg84
Nsg58
g59
sg41
(dp3638
sbsg2068
(F0.0
F0.0
F0.0
F1.0
tp3639
sg2044
Nsg2070
Nsg2045
Nsg2035
Nsg2048
I00
sg2049
I00
sg2050
(dp3640
sg2348
g3577
sg2052
I00
sg2077
Nsg2078
I01
sg2079
F1.0
sg3578
g3579
sg2053
Nsg2082
I01
sg2083
g3580
sg2085
Nsg2086
g2332
sg2088
g2089
sg2176
g0
(g410
g2
Ntp3641
Rp3642
(dp3643
g14
I1
sg84
Nsg58
g59
sg41
(dp3644
sbsg2090
g2091
sg2092
g2272
sg2094
I0
sg3585
(g3586
g0
(g410
g2
Ntp3645
Rp3646
(dp3647
g14
I1
sg84
Nsg58
g59
sg41
(dp3648
sbtp3649
sg2095
I01
sg2097
Nsg3592
g3631
sg60
g259
sg2080
Nsg2583
F2.5
sg2098
g3593
sg2100
Nsg2101
g7
sg2054
Nsg2183
g0
(g2184
g2
Ntp3650
Rp3651
(dp3652
g2188
I00
sg2189
Nsg2201
g26
(g27
(I0
tp3653
g29
tp3654
Rp3655
(I1
(I2
I2
tp3656
g36
I00
S'\x00\x00\x00\x00\x00\x00*@\x00\x00\x00\x00\x00\x00\x00\x00\x00\x00\x00\x00\x00\x00*@\x00\x00\x00\x00\x00\x00\x00\x00'
p3657
tp3658
bsg2208
I00
sg2209
F0.1111111111111111
sg2210
I1
sg2211
I00
sbsbsVleft
p3659
g0
(g3565
g2
Ntp3660
Rp3661
(dp3662
g2013
g59
sg2420
I00
sg2028
I01
sg2029
g2032
sg3569
Nsg2027
I01
sg2034
Nsg2061
Nsg2038
g2039
sg2062
Nsg2041
I01
sg2399
g3006
sg2063
g0
(g410
g2
Ntp3663
Rp3664
(dp3665
g14
I1
sg84
Nsg58
g59
sg41
(dp3666
sbsg2068
(F0.0
F0.0
F0.0
F1.0
tp3667
sg2044
Nsg2070
Nsg2045
Nsg2035
Nsg2048
I00
sg2049
I00
sg2050
(dp3668
sg2348
g3577
sg2052
I00
sg2077
Nsg2078
I01
sg2079
F1.0
sg3578
g3579
sg2053
Nsg2082
I01
sg2083
g3580
sg2085
Nsg2086
g2332
sg2088
g2089
sg2176
g0
(g410
g2
Ntp3669
Rp3670
(dp3671
g14
I1
sg84
Nsg58
g59
sg41
(dp3672
sbsg2090
g2091
sg2092
g2272
sg2094
I0
sg3585
(g3586
g0
(g410
g2
Ntp3673
Rp3674
(dp3675
g14
I1
sg84
Nsg58
g59
sg41
(dp3676
sbtp3677
sg2095
I01
sg2097
Nsg3592
g3659
sg60
g180
sg2080
Nsg2583
F2.5
sg2098
g3593
sg2100
Nsg2101
g7
sg2054
Nsg2183
g0
(g2184
g2
Ntp3678
Rp3679
(dp3680
g2188
I00
sg2189
Nsg2201
g26
(g27
(I0
tp3681
g29
tp3682
Rp3683
(I1
(I2
I2
tp3684
g36
I00
S'\x00\x00\x00\x00\x00\x00\x00\x00\x00\x00\x00\x00\x00\x00*@\x00\x00\x00\x00\x00\x00\x00\x00\x00\x00\x00\x00\x00\x00*@'
p3685
tp3686
bsg2208
I00
sg2209
F0.1111111111111111
sg2210
I1
sg2211
I00
sbsbssg2062
Nsg2100
NsS'_axisbg'
p3687
g2093
sb.